
kernel:     file format elf64-littleriscv


Disassembly of section .text:

0000000080000000 <_entry>:
    80000000:	0000d117          	auipc	sp,0xd
    80000004:	c2813103          	ld	sp,-984(sp) # 8000cc28 <_GLOBAL_OFFSET_TABLE_+0x38>
    80000008:	00001537          	lui	a0,0x1
    8000000c:	f14025f3          	csrr	a1,mhartid
    80000010:	00158593          	addi	a1,a1,1
    80000014:	02b50533          	mul	a0,a0,a1
    80000018:	00a10133          	add	sp,sp,a0
    8000001c:	1e4070ef          	jal	ra,80007200 <start>

0000000080000020 <spin>:
    80000020:	0000006f          	j	80000020 <spin>
	...

0000000080001000 <restoreContext>:

.global restoreContext
.align 4
restoreContext:

    csrw sscratch, a0
    80001000:	14051073          	csrw	sscratch,a0

    #A0 = TCB::running->context.kernelStackPointer
    ld a0, _ZN3TCB7runningE
    80001004:	0000c517          	auipc	a0,0xc
    80001008:	cfc53503          	ld	a0,-772(a0) # 8000cd00 <_ZN3TCB7runningE>
    ld a0, 24(a0)
    8000100c:	01853503          	ld	a0,24(a0)

    #Switch to user stack
    #and set ra to bodyWrapper
    ld ra, 1*8(a0)
    80001010:	00853083          	ld	ra,8(a0)
    ld sp, 2*8(a0)
    80001014:	01053103          	ld	sp,16(a0)


    #TCB::running->context.kernelStackPointer += 256
    mv a1, a0
    80001018:	00050593          	mv	a1,a0
    addi a1, a1, 256
    8000101c:	10058593          	addi	a1,a1,256
    sd a1, 0(a0)
    80001020:	00b53023          	sd	a1,0(a0)
    csrr a0, sscratch
    80001024:	14002573          	csrr	a0,sscratch
    sret
    80001028:	10200073          	sret
    8000102c:	00000013          	nop

0000000080001030 <_ZN5RISCV14supervisorTrapEv>:
.extern _ZN5RISCV20handleSupervisorTrapEv
.align 4
.global _ZN5RISCV14supervisorTrapEv
.type _ZN5RISCV14supervisorTrapEv, @function
_ZN5RISCV14supervisorTrapEv:
    context_save
    80001030:	14051073          	csrw	sscratch,a0
    80001034:	0000c517          	auipc	a0,0xc
    80001038:	ccc53503          	ld	a0,-820(a0) # 8000cd00 <_ZN3TCB7runningE>
    8000103c:	01853503          	ld	a0,24(a0)
    80001040:	f0050513          	addi	a0,a0,-256
    80001044:	00053023          	sd	zero,0(a0)
    80001048:	00153423          	sd	ra,8(a0)
    8000104c:	00253823          	sd	sp,16(a0)
    80001050:	00353c23          	sd	gp,24(a0)
    80001054:	02453023          	sd	tp,32(a0)
    80001058:	02553423          	sd	t0,40(a0)
    8000105c:	02653823          	sd	t1,48(a0)
    80001060:	02753c23          	sd	t2,56(a0)
    80001064:	04853023          	sd	s0,64(a0)
    80001068:	04953423          	sd	s1,72(a0)
    8000106c:	04a53823          	sd	a0,80(a0)
    80001070:	04b53c23          	sd	a1,88(a0)
    80001074:	06c53023          	sd	a2,96(a0)
    80001078:	06d53423          	sd	a3,104(a0)
    8000107c:	06e53823          	sd	a4,112(a0)
    80001080:	06f53c23          	sd	a5,120(a0)
    80001084:	09053023          	sd	a6,128(a0)
    80001088:	09153423          	sd	a7,136(a0)
    8000108c:	09253823          	sd	s2,144(a0)
    80001090:	09353c23          	sd	s3,152(a0)
    80001094:	0b453023          	sd	s4,160(a0)
    80001098:	0b553423          	sd	s5,168(a0)
    8000109c:	0b653823          	sd	s6,176(a0)
    800010a0:	0b753c23          	sd	s7,184(a0)
    800010a4:	0d853023          	sd	s8,192(a0)
    800010a8:	0d953423          	sd	s9,200(a0)
    800010ac:	0da53823          	sd	s10,208(a0)
    800010b0:	0db53c23          	sd	s11,216(a0)
    800010b4:	0fc53023          	sd	t3,224(a0)
    800010b8:	0fd53423          	sd	t4,232(a0)
    800010bc:	0fe53823          	sd	t5,240(a0)
    800010c0:	0ff53c23          	sd	t6,248(a0)
    800010c4:	14002373          	csrr	t1,sscratch
    800010c8:	04653823          	sd	t1,80(a0)
    800010cc:	00050113          	mv	sp,a0
    800010d0:	14002573          	csrr	a0,sscratch
    call _ZN5RISCV20handleSupervisorTrapEv
    800010d4:	0d5010ef          	jal	ra,800029a8 <_ZN5RISCV20handleSupervisorTrapEv>
    context_load
    800010d8:	0000c517          	auipc	a0,0xc
    800010dc:	c2853503          	ld	a0,-984(a0) # 8000cd00 <_ZN3TCB7runningE>
    800010e0:	00010593          	mv	a1,sp
    800010e4:	10058593          	addi	a1,a1,256
    800010e8:	00b53c23          	sd	a1,24(a0)
    800010ec:	00013003          	ld	zero,0(sp)
    800010f0:	00813083          	ld	ra,8(sp)
    800010f4:	01813183          	ld	gp,24(sp)
    800010f8:	02013203          	ld	tp,32(sp)
    800010fc:	02813283          	ld	t0,40(sp)
    80001100:	03013303          	ld	t1,48(sp)
    80001104:	03813383          	ld	t2,56(sp)
    80001108:	04013403          	ld	s0,64(sp)
    8000110c:	04813483          	ld	s1,72(sp)
    80001110:	05013503          	ld	a0,80(sp)
    80001114:	05813583          	ld	a1,88(sp)
    80001118:	06013603          	ld	a2,96(sp)
    8000111c:	06813683          	ld	a3,104(sp)
    80001120:	07013703          	ld	a4,112(sp)
    80001124:	07813783          	ld	a5,120(sp)
    80001128:	08013803          	ld	a6,128(sp)
    8000112c:	08813883          	ld	a7,136(sp)
    80001130:	09013903          	ld	s2,144(sp)
    80001134:	09813983          	ld	s3,152(sp)
    80001138:	0a013a03          	ld	s4,160(sp)
    8000113c:	0a813a83          	ld	s5,168(sp)
    80001140:	0b013b03          	ld	s6,176(sp)
    80001144:	0b813b83          	ld	s7,184(sp)
    80001148:	0c013c03          	ld	s8,192(sp)
    8000114c:	0c813c83          	ld	s9,200(sp)
    80001150:	0d013d03          	ld	s10,208(sp)
    80001154:	0d813d83          	ld	s11,216(sp)
    80001158:	0e013e03          	ld	t3,224(sp)
    8000115c:	0e813e83          	ld	t4,232(sp)
    80001160:	0f013f03          	ld	t5,240(sp)
    80001164:	0f813f83          	ld	t6,248(sp)
    80001168:	01013103          	ld	sp,16(sp)
    sret
    8000116c:	10200073          	sret

0000000080001170 <_ZN5RISCV27supervisorSoftwareInterruptEv>:
.align 4
.global _ZN5RISCV27supervisorSoftwareInterruptEv
.type _ZN5RISCV27supervisorSoftwareInterruptEv, @function
_ZN5RISCV27supervisorSoftwareInterruptEv:
    #save A0 in sscratch temporarily
    csrw sscratch, a0
    80001170:	14051073          	csrw	sscratch,a0
    #A0 = TCB::running->supervisorMode
    ld a0, _ZN3TCB7runningE
    80001174:	0000c517          	auipc	a0,0xc
    80001178:	b8c53503          	ld	a0,-1140(a0) # 8000cd00 <_ZN3TCB7runningE>
    ld a0, 40(a0)
    8000117c:	02853503          	ld	a0,40(a0)
    #supervisorMode==1, there is no need to switch stacks
    #jump to simple store_registers macro
    bne a0, zero, already_in_kernel
    80001180:	0a051863          	bnez	a0,80001230 <already_in_kernel>
    csrr a0, sscratch
    80001184:	14002573          	csrr	a0,sscratch
    context_save
    80001188:	14051073          	csrw	sscratch,a0
    8000118c:	0000c517          	auipc	a0,0xc
    80001190:	b7453503          	ld	a0,-1164(a0) # 8000cd00 <_ZN3TCB7runningE>
    80001194:	01853503          	ld	a0,24(a0)
    80001198:	f0050513          	addi	a0,a0,-256
    8000119c:	00053023          	sd	zero,0(a0)
    800011a0:	00153423          	sd	ra,8(a0)
    800011a4:	00253823          	sd	sp,16(a0)
    800011a8:	00353c23          	sd	gp,24(a0)
    800011ac:	02453023          	sd	tp,32(a0)
    800011b0:	02553423          	sd	t0,40(a0)
    800011b4:	02653823          	sd	t1,48(a0)
    800011b8:	02753c23          	sd	t2,56(a0)
    800011bc:	04853023          	sd	s0,64(a0)
    800011c0:	04953423          	sd	s1,72(a0)
    800011c4:	04a53823          	sd	a0,80(a0)
    800011c8:	04b53c23          	sd	a1,88(a0)
    800011cc:	06c53023          	sd	a2,96(a0)
    800011d0:	06d53423          	sd	a3,104(a0)
    800011d4:	06e53823          	sd	a4,112(a0)
    800011d8:	06f53c23          	sd	a5,120(a0)
    800011dc:	09053023          	sd	a6,128(a0)
    800011e0:	09153423          	sd	a7,136(a0)
    800011e4:	09253823          	sd	s2,144(a0)
    800011e8:	09353c23          	sd	s3,152(a0)
    800011ec:	0b453023          	sd	s4,160(a0)
    800011f0:	0b553423          	sd	s5,168(a0)
    800011f4:	0b653823          	sd	s6,176(a0)
    800011f8:	0b753c23          	sd	s7,184(a0)
    800011fc:	0d853023          	sd	s8,192(a0)
    80001200:	0d953423          	sd	s9,200(a0)
    80001204:	0da53823          	sd	s10,208(a0)
    80001208:	0db53c23          	sd	s11,216(a0)
    8000120c:	0fc53023          	sd	t3,224(a0)
    80001210:	0fd53423          	sd	t4,232(a0)
    80001214:	0fe53823          	sd	t5,240(a0)
    80001218:	0ff53c23          	sd	t6,248(a0)
    8000121c:	14002373          	csrr	t1,sscratch
    80001220:	04653823          	sd	t1,80(a0)
    80001224:	00050113          	mv	sp,a0
    80001228:	14002573          	csrr	a0,sscratch
    jal zero,call_trap
    8000122c:	0880006f          	j	800012b4 <call_trap>

0000000080001230 <already_in_kernel>:
    already_in_kernel:
    store_registers
    80001230:	f0010113          	addi	sp,sp,-256
    80001234:	00013023          	sd	zero,0(sp)
    80001238:	00113423          	sd	ra,8(sp)
    8000123c:	00213823          	sd	sp,16(sp)
    80001240:	00313c23          	sd	gp,24(sp)
    80001244:	02413023          	sd	tp,32(sp)
    80001248:	02513423          	sd	t0,40(sp)
    8000124c:	02613823          	sd	t1,48(sp)
    80001250:	02713c23          	sd	t2,56(sp)
    80001254:	04813023          	sd	s0,64(sp)
    80001258:	04913423          	sd	s1,72(sp)
    8000125c:	04a13823          	sd	a0,80(sp)
    80001260:	04b13c23          	sd	a1,88(sp)
    80001264:	06c13023          	sd	a2,96(sp)
    80001268:	06d13423          	sd	a3,104(sp)
    8000126c:	06e13823          	sd	a4,112(sp)
    80001270:	06f13c23          	sd	a5,120(sp)
    80001274:	09013023          	sd	a6,128(sp)
    80001278:	09113423          	sd	a7,136(sp)
    8000127c:	09213823          	sd	s2,144(sp)
    80001280:	09313c23          	sd	s3,152(sp)
    80001284:	0b413023          	sd	s4,160(sp)
    80001288:	0b513423          	sd	s5,168(sp)
    8000128c:	0b613823          	sd	s6,176(sp)
    80001290:	0b713c23          	sd	s7,184(sp)
    80001294:	0d813023          	sd	s8,192(sp)
    80001298:	0d913423          	sd	s9,200(sp)
    8000129c:	0da13823          	sd	s10,208(sp)
    800012a0:	0db13c23          	sd	s11,216(sp)
    800012a4:	0fc13023          	sd	t3,224(sp)
    800012a8:	0fd13423          	sd	t4,232(sp)
    800012ac:	0fe13823          	sd	t5,240(sp)
    800012b0:	0ff13c23          	sd	t6,248(sp)

00000000800012b4 <call_trap>:
    call_trap:

    call _ZN5RISCV33handleSupervisorSoftwareInterruptEv
    800012b4:	055010ef          	jal	ra,80002b08 <_ZN5RISCV33handleSupervisorSoftwareInterruptEv>

    #save A0 in sscratch temporarily
    csrw sscratch, a0
    800012b8:	14051073          	csrw	sscratch,a0
    #A0 = TCB::running->supervisorMode
    ld a0, _ZN3TCB7runningE
    800012bc:	0000c517          	auipc	a0,0xc
    800012c0:	a4453503          	ld	a0,-1468(a0) # 8000cd00 <_ZN3TCB7runningE>
    ld a0, 40(a0)
    800012c4:	02853503          	ld	a0,40(a0)
    #supervisorMode==1, there is no need to switch stacks
    #jump to simple load_registers macro
    bne a0, zero, already_in_kernel2
    800012c8:	0a051063          	bnez	a0,80001368 <already_in_kernel2>
    csrr a0, sscratch
    800012cc:	14002573          	csrr	a0,sscratch
    context_load
    800012d0:	0000c517          	auipc	a0,0xc
    800012d4:	a3053503          	ld	a0,-1488(a0) # 8000cd00 <_ZN3TCB7runningE>
    800012d8:	00010593          	mv	a1,sp
    800012dc:	10058593          	addi	a1,a1,256
    800012e0:	00b53c23          	sd	a1,24(a0)
    800012e4:	00013003          	ld	zero,0(sp)
    800012e8:	00813083          	ld	ra,8(sp)
    800012ec:	01813183          	ld	gp,24(sp)
    800012f0:	02013203          	ld	tp,32(sp)
    800012f4:	02813283          	ld	t0,40(sp)
    800012f8:	03013303          	ld	t1,48(sp)
    800012fc:	03813383          	ld	t2,56(sp)
    80001300:	04013403          	ld	s0,64(sp)
    80001304:	04813483          	ld	s1,72(sp)
    80001308:	05013503          	ld	a0,80(sp)
    8000130c:	05813583          	ld	a1,88(sp)
    80001310:	06013603          	ld	a2,96(sp)
    80001314:	06813683          	ld	a3,104(sp)
    80001318:	07013703          	ld	a4,112(sp)
    8000131c:	07813783          	ld	a5,120(sp)
    80001320:	08013803          	ld	a6,128(sp)
    80001324:	08813883          	ld	a7,136(sp)
    80001328:	09013903          	ld	s2,144(sp)
    8000132c:	09813983          	ld	s3,152(sp)
    80001330:	0a013a03          	ld	s4,160(sp)
    80001334:	0a813a83          	ld	s5,168(sp)
    80001338:	0b013b03          	ld	s6,176(sp)
    8000133c:	0b813b83          	ld	s7,184(sp)
    80001340:	0c013c03          	ld	s8,192(sp)
    80001344:	0c813c83          	ld	s9,200(sp)
    80001348:	0d013d03          	ld	s10,208(sp)
    8000134c:	0d813d83          	ld	s11,216(sp)
    80001350:	0e013e03          	ld	t3,224(sp)
    80001354:	0e813e83          	ld	t4,232(sp)
    80001358:	0f013f03          	ld	t5,240(sp)
    8000135c:	0f813f83          	ld	t6,248(sp)
    80001360:	01013103          	ld	sp,16(sp)
    jal zero,call_trap2
    80001364:	0880006f          	j	800013ec <call_trap2>

0000000080001368 <already_in_kernel2>:
    already_in_kernel2:
    load_registers
    80001368:	00013003          	ld	zero,0(sp)
    8000136c:	00813083          	ld	ra,8(sp)
    80001370:	01013103          	ld	sp,16(sp)
    80001374:	01813183          	ld	gp,24(sp)
    80001378:	02013203          	ld	tp,32(sp)
    8000137c:	02813283          	ld	t0,40(sp)
    80001380:	03013303          	ld	t1,48(sp)
    80001384:	03813383          	ld	t2,56(sp)
    80001388:	04013403          	ld	s0,64(sp)
    8000138c:	04813483          	ld	s1,72(sp)
    80001390:	05013503          	ld	a0,80(sp)
    80001394:	05813583          	ld	a1,88(sp)
    80001398:	06013603          	ld	a2,96(sp)
    8000139c:	06813683          	ld	a3,104(sp)
    800013a0:	07013703          	ld	a4,112(sp)
    800013a4:	07813783          	ld	a5,120(sp)
    800013a8:	08013803          	ld	a6,128(sp)
    800013ac:	08813883          	ld	a7,136(sp)
    800013b0:	09013903          	ld	s2,144(sp)
    800013b4:	09813983          	ld	s3,152(sp)
    800013b8:	0a013a03          	ld	s4,160(sp)
    800013bc:	0a813a83          	ld	s5,168(sp)
    800013c0:	0b013b03          	ld	s6,176(sp)
    800013c4:	0b813b83          	ld	s7,184(sp)
    800013c8:	0c013c03          	ld	s8,192(sp)
    800013cc:	0c813c83          	ld	s9,200(sp)
    800013d0:	0d013d03          	ld	s10,208(sp)
    800013d4:	0d813d83          	ld	s11,216(sp)
    800013d8:	0e013e03          	ld	t3,224(sp)
    800013dc:	0e813e83          	ld	t4,232(sp)
    800013e0:	0f013f03          	ld	t5,240(sp)
    800013e4:	0f813f83          	ld	t6,248(sp)
    800013e8:	10010113          	addi	sp,sp,256

00000000800013ec <call_trap2>:
    call_trap2:

    sret
    800013ec:	10200073          	sret

00000000800013f0 <_ZN5RISCV27supervisorHardwareInterruptEv>:
.extern _ZN5RISCV33handleSupervisorHardwareInterruptEv
.align 4
.global _ZN5RISCV27supervisorHardwareInterruptEv
.type _ZN5RISCV27supervisorHardwareInterruptEv, @function
_ZN5RISCV27supervisorHardwareInterruptEv:
    store_registers
    800013f0:	f0010113          	addi	sp,sp,-256
    800013f4:	00013023          	sd	zero,0(sp)
    800013f8:	00113423          	sd	ra,8(sp)
    800013fc:	00213823          	sd	sp,16(sp)
    80001400:	00313c23          	sd	gp,24(sp)
    80001404:	02413023          	sd	tp,32(sp)
    80001408:	02513423          	sd	t0,40(sp)
    8000140c:	02613823          	sd	t1,48(sp)
    80001410:	02713c23          	sd	t2,56(sp)
    80001414:	04813023          	sd	s0,64(sp)
    80001418:	04913423          	sd	s1,72(sp)
    8000141c:	04a13823          	sd	a0,80(sp)
    80001420:	04b13c23          	sd	a1,88(sp)
    80001424:	06c13023          	sd	a2,96(sp)
    80001428:	06d13423          	sd	a3,104(sp)
    8000142c:	06e13823          	sd	a4,112(sp)
    80001430:	06f13c23          	sd	a5,120(sp)
    80001434:	09013023          	sd	a6,128(sp)
    80001438:	09113423          	sd	a7,136(sp)
    8000143c:	09213823          	sd	s2,144(sp)
    80001440:	09313c23          	sd	s3,152(sp)
    80001444:	0b413023          	sd	s4,160(sp)
    80001448:	0b513423          	sd	s5,168(sp)
    8000144c:	0b613823          	sd	s6,176(sp)
    80001450:	0b713c23          	sd	s7,184(sp)
    80001454:	0d813023          	sd	s8,192(sp)
    80001458:	0d913423          	sd	s9,200(sp)
    8000145c:	0da13823          	sd	s10,208(sp)
    80001460:	0db13c23          	sd	s11,216(sp)
    80001464:	0fc13023          	sd	t3,224(sp)
    80001468:	0fd13423          	sd	t4,232(sp)
    8000146c:	0fe13823          	sd	t5,240(sp)
    80001470:	0ff13c23          	sd	t6,248(sp)
    call _ZN5RISCV33handleSupervisorHardwareInterruptEv
    80001474:	75c010ef          	jal	ra,80002bd0 <_ZN5RISCV33handleSupervisorHardwareInterruptEv>
    load_registers
    80001478:	00013003          	ld	zero,0(sp)
    8000147c:	00813083          	ld	ra,8(sp)
    80001480:	01013103          	ld	sp,16(sp)
    80001484:	01813183          	ld	gp,24(sp)
    80001488:	02013203          	ld	tp,32(sp)
    8000148c:	02813283          	ld	t0,40(sp)
    80001490:	03013303          	ld	t1,48(sp)
    80001494:	03813383          	ld	t2,56(sp)
    80001498:	04013403          	ld	s0,64(sp)
    8000149c:	04813483          	ld	s1,72(sp)
    800014a0:	05013503          	ld	a0,80(sp)
    800014a4:	05813583          	ld	a1,88(sp)
    800014a8:	06013603          	ld	a2,96(sp)
    800014ac:	06813683          	ld	a3,104(sp)
    800014b0:	07013703          	ld	a4,112(sp)
    800014b4:	07813783          	ld	a5,120(sp)
    800014b8:	08013803          	ld	a6,128(sp)
    800014bc:	08813883          	ld	a7,136(sp)
    800014c0:	09013903          	ld	s2,144(sp)
    800014c4:	09813983          	ld	s3,152(sp)
    800014c8:	0a013a03          	ld	s4,160(sp)
    800014cc:	0a813a83          	ld	s5,168(sp)
    800014d0:	0b013b03          	ld	s6,176(sp)
    800014d4:	0b813b83          	ld	s7,184(sp)
    800014d8:	0c013c03          	ld	s8,192(sp)
    800014dc:	0c813c83          	ld	s9,200(sp)
    800014e0:	0d013d03          	ld	s10,208(sp)
    800014e4:	0d813d83          	ld	s11,216(sp)
    800014e8:	0e013e03          	ld	t3,224(sp)
    800014ec:	0e813e83          	ld	t4,232(sp)
    800014f0:	0f013f03          	ld	t5,240(sp)
    800014f4:	0f813f83          	ld	t6,248(sp)
    800014f8:	10010113          	addi	sp,sp,256
    sret
    800014fc:	10200073          	sret

0000000080001500 <stvec_table>:
.global stvec_table
.align 4

stvec_table:
.org stvec_table + 0*4
jal zero,_ZN5RISCV14supervisorTrapEv
    80001500:	b31ff06f          	j	80001030 <_ZN5RISCV14supervisorTrapEv>
.org stvec_table + 1*4
jal zero,_ZN5RISCV27supervisorSoftwareInterruptEv
    80001504:	c6dff06f          	j	80001170 <_ZN5RISCV27supervisorSoftwareInterruptEv>
	...
.org stvec_table + 9*4
jal zero,_ZN5RISCV27supervisorHardwareInterruptEv
    80001524:	ecdff06f          	j	800013f0 <_ZN5RISCV27supervisorHardwareInterruptEv>

0000000080001528 <_ZN3TCB13contextSwitchEPNS_7ContextES1_>:

.global _ZN3TCB13contextSwitchEPNS_7ContextES1_
.type _ZN3TCB13contextSwitchEPNS_7ContextES1_, @function
_ZN3TCB13contextSwitchEPNS_7ContextES1_:
    sd sp, 0 * 8(a0)
    80001528:	00253023          	sd	sp,0(a0)
    sd ra, 1 * 8(sp)
    8000152c:	00113423          	sd	ra,8(sp)

    ld sp, 0 * 8(a1)
    80001530:	0005b103          	ld	sp,0(a1)
    ld ra, 1 * 8(sp)
    80001534:	00813083          	ld	ra,8(sp)
    ret
    80001538:	00008067          	ret

000000008000153c <copy_and_swap>:
# a1 holds expected value
# a2 holds desired value
# a0 holds return value, 0 if successful, !0 otherwise
.global copy_and_swap
copy_and_swap:
    lr.w t0, (a0)          # Load original value.
    8000153c:	100522af          	lr.w	t0,(a0)
    bne t0, a1, fail       # Doesn’t match, so fail.
    80001540:	00b29a63          	bne	t0,a1,80001554 <fail>
    sc.w t0, a2, (a0)      # Try to update.
    80001544:	18c522af          	sc.w	t0,a2,(a0)
    bnez t0, copy_and_swap # Retry if store-conditional failed.
    80001548:	fe029ae3          	bnez	t0,8000153c <copy_and_swap>
    li a0, 0               # Set return to success.
    8000154c:	00000513          	li	a0,0
    jr ra                  # Return.
    80001550:	00008067          	ret

0000000080001554 <fail>:
    fail:
    li a0, 1               # Set return to failure.
    80001554:	00100513          	li	a0,1
    80001558:	00008067          	ret

000000008000155c <_Z9mem_allocm>:
#include "../h/syscall_c.hpp"
#include "../h/print.hpp"

void* mem_alloc(size_t size){
    8000155c:	fe010113          	addi	sp,sp,-32
    80001560:	00813c23          	sd	s0,24(sp)
    80001564:	02010413          	addi	s0,sp,32
    // Bytes to Blocks of MEM_BLOCK_SIZE
    size = size & (MEM_BLOCK_SIZE-1)? size/MEM_BLOCK_SIZE +1 : size/MEM_BLOCK_SIZE;
    80001568:	03f57793          	andi	a5,a0,63
    8000156c:	02078a63          	beqz	a5,800015a0 <_Z9mem_allocm+0x44>
    80001570:	00655513          	srli	a0,a0,0x6
    80001574:	00150513          	addi	a0,a0,1
GENERATE_WRRD(ra)
GENERATE_WRRD(sp)
GENERATE_WRRD(gp)
GENERATE_WRRD(tp)
GENERATE_WRRD(a0);
GENERATE_WRRD(a1);
    80001578:	00050593          	mv	a1,a0
GENERATE_WRRD(a0);
    8000157c:	00100793          	li	a5,1
    80001580:	00078513          	mv	a0,a5

    riscv_wr_a1(size);
    riscv_wr_a0(RISCV_SYS_MEM_ALLOC);

    __asm__ volatile("ecall");
    80001584:	00000073          	ecall

    volatile long a0;
    __asm__ volatile ("mv %0, a0" : "=r"(a0));
    80001588:	00050793          	mv	a5,a0
    8000158c:	fef43423          	sd	a5,-24(s0)
    return (void*)a0;
    80001590:	fe843503          	ld	a0,-24(s0)
}
    80001594:	01813403          	ld	s0,24(sp)
    80001598:	02010113          	addi	sp,sp,32
    8000159c:	00008067          	ret
    size = size & (MEM_BLOCK_SIZE-1)? size/MEM_BLOCK_SIZE +1 : size/MEM_BLOCK_SIZE;
    800015a0:	00655513          	srli	a0,a0,0x6
    800015a4:	fd5ff06f          	j	80001578 <_Z9mem_allocm+0x1c>

00000000800015a8 <_Z8mem_freePv>:


int mem_free(void* ptr){
    800015a8:	fe010113          	addi	sp,sp,-32
    800015ac:	00813c23          	sd	s0,24(sp)
    800015b0:	02010413          	addi	s0,sp,32
GENERATE_WRRD(a1);
    800015b4:	00050593          	mv	a1,a0
GENERATE_WRRD(a0);
    800015b8:	00200793          	li	a5,2
    800015bc:	00078513          	mv	a0,a5
    riscv_wr_a1((uint64)ptr);
    riscv_wr_a0(RISCV_SYS_MEM_FREE);

    __asm__ volatile("ecall");
    800015c0:	00000073          	ecall

    volatile long a0;
    __asm__ volatile ("mv %0, a0" : "=r"(a0));
    800015c4:	00050793          	mv	a5,a0
    800015c8:	fef43423          	sd	a5,-24(s0)
    return (int)a0;
    800015cc:	fe843503          	ld	a0,-24(s0)

}
    800015d0:	0005051b          	sext.w	a0,a0
    800015d4:	01813403          	ld	s0,24(sp)
    800015d8:	02010113          	addi	sp,sp,32
    800015dc:	00008067          	ret

00000000800015e0 <_Z13thread_createPP3TCBPFvPvES2_>:

int thread_create(thread_t* handle, void(*start_routine)(void*), void* arg ){
    800015e0:	fc010113          	addi	sp,sp,-64
    800015e4:	02113c23          	sd	ra,56(sp)
    800015e8:	02813823          	sd	s0,48(sp)
    800015ec:	02913423          	sd	s1,40(sp)
    800015f0:	03213023          	sd	s2,32(sp)
    800015f4:	01313c23          	sd	s3,24(sp)
    800015f8:	01413823          	sd	s4,16(sp)
    800015fc:	04010413          	addi	s0,sp,64
    80001600:	00050993          	mv	s3,a0
    80001604:	00058913          	mv	s2,a1
    80001608:	00060a13          	mv	s4,a2

    uint64* kernel_stack_space = new uint64[TCB::KERNEL_STACK_SIZE];
    8000160c:	00002537          	lui	a0,0x2
    80001610:	00000097          	auipc	ra,0x0
    80001614:	7e0080e7          	jalr	2016(ra) # 80001df0 <_Znam>
    if(!kernel_stack_space) {
    80001618:	08050663          	beqz	a0,800016a4 <_Z13thread_createPP3TCBPFvPvES2_+0xc4>
    8000161c:	00050493          	mv	s1,a0
        return -1;
    }
    uint64* stack_space = nullptr;

    if(start_routine) stack_space = new uint64[DEFAULT_STACK_SIZE];
    80001620:	06090863          	beqz	s2,80001690 <_Z13thread_createPP3TCBPFvPvES2_+0xb0>
    80001624:	00008537          	lui	a0,0x8
    80001628:	00000097          	auipc	ra,0x0
    8000162c:	7c8080e7          	jalr	1992(ra) # 80001df0 <_Znam>
    if(!stack_space) {
    80001630:	06050063          	beqz	a0,80001690 <_Z13thread_createPP3TCBPFvPvES2_+0xb0>
GENERATE_WRRD(a2);
GENERATE_WRRD(a3);
GENERATE_WRRD(a4);
GENERATE_WRRD(a5);
GENERATE_WRRD(a6);
GENERATE_WRRD(a7);
    80001634:	00048893          	mv	a7,s1
GENERATE_WRRD(a6);
    80001638:	00050813          	mv	a6,a0
GENERATE_WRRD(a3);
    8000163c:	000a0693          	mv	a3,s4
GENERATE_WRRD(a2);
    80001640:	00090613          	mv	a2,s2
GENERATE_WRRD(a1);
    80001644:	00098593          	mv	a1,s3
GENERATE_WRRD(a0);
    80001648:	01100793          	li	a5,17
    8000164c:	00078513          	mv	a0,a5
    riscv_wr_a1((uint64)handle);
    riscv_wr_a0(RISCV_SYS_THREAD_CREATE);



    __asm__ volatile("ecall");
    80001650:	00000073          	ecall


    volatile long a0;
    __asm__ volatile ("mv %0, a0" : "=r"(a0));
    80001654:	00050793          	mv	a5,a0
    80001658:	fcf43423          	sd	a5,-56(s0)

    if(a0==1){
    8000165c:	fc843703          	ld	a4,-56(s0)
    80001660:	00100793          	li	a5,1
    80001664:	04f70463          	beq	a4,a5,800016ac <_Z13thread_createPP3TCBPFvPvES2_+0xcc>
        return 0;
    }else{
        return (int)a0;
    80001668:	fc843503          	ld	a0,-56(s0)
    8000166c:	0005051b          	sext.w	a0,a0
    }


}
    80001670:	03813083          	ld	ra,56(sp)
    80001674:	03013403          	ld	s0,48(sp)
    80001678:	02813483          	ld	s1,40(sp)
    8000167c:	02013903          	ld	s2,32(sp)
    80001680:	01813983          	ld	s3,24(sp)
    80001684:	01013a03          	ld	s4,16(sp)
    80001688:	04010113          	addi	sp,sp,64
    8000168c:	00008067          	ret
        delete[] kernel_stack_space;
    80001690:	00048513          	mv	a0,s1
    80001694:	00001097          	auipc	ra,0x1
    80001698:	82c080e7          	jalr	-2004(ra) # 80001ec0 <_ZdaPv>
        return -1;
    8000169c:	fff00513          	li	a0,-1
    800016a0:	fd1ff06f          	j	80001670 <_Z13thread_createPP3TCBPFvPvES2_+0x90>
        return -1;
    800016a4:	fff00513          	li	a0,-1
    800016a8:	fc9ff06f          	j	80001670 <_Z13thread_createPP3TCBPFvPvES2_+0x90>
        return 0;
    800016ac:	00000513          	li	a0,0
    800016b0:	fc1ff06f          	j	80001670 <_Z13thread_createPP3TCBPFvPvES2_+0x90>

00000000800016b4 <_Z11thread_exitv>:

int thread_exit(){
    800016b4:	fe010113          	addi	sp,sp,-32
    800016b8:	00813c23          	sd	s0,24(sp)
    800016bc:	02010413          	addi	s0,sp,32
    800016c0:	01200793          	li	a5,18
    800016c4:	00078513          	mv	a0,a5
    riscv_wr_a0(RISCV_SYS_THREAD_EXIT);
    __asm__ volatile("ecall");
    800016c8:	00000073          	ecall
    volatile long a0;
    __asm__ volatile ("mv %0, a0" : "=r"(a0));
    800016cc:	00050793          	mv	a5,a0
    800016d0:	fef43423          	sd	a5,-24(s0)
    return (int)a0;
    800016d4:	fe843503          	ld	a0,-24(s0)
}
    800016d8:	0005051b          	sext.w	a0,a0
    800016dc:	01813403          	ld	s0,24(sp)
    800016e0:	02010113          	addi	sp,sp,32
    800016e4:	00008067          	ret

00000000800016e8 <_Z15thread_dispatchv>:
void thread_dispatch(){
    800016e8:	ff010113          	addi	sp,sp,-16
    800016ec:	00813423          	sd	s0,8(sp)
    800016f0:	01010413          	addi	s0,sp,16
    800016f4:	01300793          	li	a5,19
    800016f8:	00078513          	mv	a0,a5
    riscv_wr_a0(RISCV_SYS_THREAD_DISPATCH);
    __asm__ volatile("ecall");
    800016fc:	00000073          	ecall
}
    80001700:	00813403          	ld	s0,8(sp)
    80001704:	01010113          	addi	sp,sp,16
    80001708:	00008067          	ret

000000008000170c <_Z11thread_joinP3TCB>:
void thread_join(thread_t handle){
    8000170c:	ff010113          	addi	sp,sp,-16
    80001710:	00813423          	sd	s0,8(sp)
    80001714:	01010413          	addi	s0,sp,16
    static TCB * createThread(Body body, uint64* stack_space, uint64* kernel_stack_space, void* args=nullptr, bool putInScheduler=true);

    static void yield();

    bool isFinished() const {
        return finished;
    80001718:	03854783          	lbu	a5,56(a0) # 8038 <_entry-0x7fff7fc8>
    if(handle->isFinished()) return;
    8000171c:	00079a63          	bnez	a5,80001730 <_Z11thread_joinP3TCB+0x24>
GENERATE_WRRD(a1);
    80001720:	00050593          	mv	a1,a0
GENERATE_WRRD(a0);
    80001724:	01400793          	li	a5,20
    80001728:	00078513          	mv	a0,a5
    riscv_wr_a1((uint64)handle);
    riscv_wr_a0(RISCV_SYS_THREAD_JOIN);
    __asm__ volatile("ecall");
    8000172c:	00000073          	ecall
}
    80001730:	00813403          	ld	s0,8(sp)
    80001734:	01010113          	addi	sp,sp,16
    80001738:	00008067          	ret

000000008000173c <_Z8sem_openPP4_semj>:

int sem_open(sem_t* handle, unsigned init){
    8000173c:	fe010113          	addi	sp,sp,-32
    80001740:	00813c23          	sd	s0,24(sp)
    80001744:	02010413          	addi	s0,sp,32
    riscv_wr_a2((uint64)init);
    80001748:	02059593          	slli	a1,a1,0x20
    8000174c:	0205d593          	srli	a1,a1,0x20
GENERATE_WRRD(a2);
    80001750:	00058613          	mv	a2,a1
GENERATE_WRRD(a1);
    80001754:	00050593          	mv	a1,a0
GENERATE_WRRD(a0);
    80001758:	02100793          	li	a5,33
    8000175c:	00078513          	mv	a0,a5
    riscv_wr_a1((uint64)handle);
    riscv_wr_a0(RISCV_SYS_SEM_OPEN);
    __asm__ volatile("ecall");
    80001760:	00000073          	ecall
    volatile long a0;
    __asm__ volatile ("mv %0, a0" : "=r"(a0));
    80001764:	00050793          	mv	a5,a0
    80001768:	fef43423          	sd	a5,-24(s0)
    return (int)a0;
    8000176c:	fe843503          	ld	a0,-24(s0)
}
    80001770:	0005051b          	sext.w	a0,a0
    80001774:	01813403          	ld	s0,24(sp)
    80001778:	02010113          	addi	sp,sp,32
    8000177c:	00008067          	ret

0000000080001780 <_Z9sem_closeP4_sem>:
int sem_close(sem_t handle){
    80001780:	fe010113          	addi	sp,sp,-32
    80001784:	00813c23          	sd	s0,24(sp)
    80001788:	02010413          	addi	s0,sp,32
GENERATE_WRRD(a1);
    8000178c:	00050593          	mv	a1,a0
GENERATE_WRRD(a0);
    80001790:	02200793          	li	a5,34
    80001794:	00078513          	mv	a0,a5
    riscv_wr_a1((uint64)handle);
    riscv_wr_a0(RISCV_SYS_SEM_CLOSE);
    __asm__ volatile("ecall");
    80001798:	00000073          	ecall
    volatile long a0;
    __asm__ volatile ("mv %0, a0" : "=r"(a0));
    8000179c:	00050793          	mv	a5,a0
    800017a0:	fef43423          	sd	a5,-24(s0)
    return (int)a0;
    800017a4:	fe843503          	ld	a0,-24(s0)
}
    800017a8:	0005051b          	sext.w	a0,a0
    800017ac:	01813403          	ld	s0,24(sp)
    800017b0:	02010113          	addi	sp,sp,32
    800017b4:	00008067          	ret

00000000800017b8 <_Z8sem_waitP4_sem>:
int sem_wait(sem_t id){
    800017b8:	fe010113          	addi	sp,sp,-32
    800017bc:	00813c23          	sd	s0,24(sp)
    800017c0:	02010413          	addi	s0,sp,32
GENERATE_WRRD(a1);
    800017c4:	00050593          	mv	a1,a0
GENERATE_WRRD(a0);
    800017c8:	02300793          	li	a5,35
    800017cc:	00078513          	mv	a0,a5
    riscv_wr_a1((uint64)id);
    riscv_wr_a0(RISCV_SYS_SEM_WAIT);
    __asm__ volatile("ecall");
    800017d0:	00000073          	ecall
    volatile long a0;
    __asm__ volatile ("mv %0, a0" : "=r"(a0));
    800017d4:	00050793          	mv	a5,a0
    800017d8:	fef43423          	sd	a5,-24(s0)
    return (int)a0;
    800017dc:	fe843503          	ld	a0,-24(s0)
}
    800017e0:	0005051b          	sext.w	a0,a0
    800017e4:	01813403          	ld	s0,24(sp)
    800017e8:	02010113          	addi	sp,sp,32
    800017ec:	00008067          	ret

00000000800017f0 <_Z10sem_signalP4_sem>:
int sem_signal(sem_t id){
    800017f0:	fe010113          	addi	sp,sp,-32
    800017f4:	00813c23          	sd	s0,24(sp)
    800017f8:	02010413          	addi	s0,sp,32
GENERATE_WRRD(a1);
    800017fc:	00050593          	mv	a1,a0
GENERATE_WRRD(a0);
    80001800:	02400793          	li	a5,36
    80001804:	00078513          	mv	a0,a5
    riscv_wr_a1((uint64)id);
    riscv_wr_a0(RISCV_SYS_SEM_SIGNAL);
    __asm__ volatile("ecall");
    80001808:	00000073          	ecall
    volatile long a0;
    __asm__ volatile ("mv %0, a0" : "=r"(a0));
    8000180c:	00050793          	mv	a5,a0
    80001810:	fef43423          	sd	a5,-24(s0)
    return (int)a0;
    80001814:	fe843503          	ld	a0,-24(s0)
}
    80001818:	0005051b          	sext.w	a0,a0
    8000181c:	01813403          	ld	s0,24(sp)
    80001820:	02010113          	addi	sp,sp,32
    80001824:	00008067          	ret

0000000080001828 <_Z10time_sleepm>:

int time_sleep(time_t time){
    80001828:	fe010113          	addi	sp,sp,-32
    8000182c:	00813c23          	sd	s0,24(sp)
    80001830:	02010413          	addi	s0,sp,32
GENERATE_WRRD(a1);
    80001834:	00050593          	mv	a1,a0
GENERATE_WRRD(a0);
    80001838:	03100793          	li	a5,49
    8000183c:	00078513          	mv	a0,a5
    riscv_wr_a1((uint64)time);
    riscv_wr_a0(RISCV_SYS_TIME_SLEEP);
    __asm__ volatile("ecall");
    80001840:	00000073          	ecall
    volatile long a0;
    __asm__ volatile ("mv %0, a0" : "=r"(a0));
    80001844:	00050793          	mv	a5,a0
    80001848:	fef43423          	sd	a5,-24(s0)
    return (int)a0;
    8000184c:	fe843503          	ld	a0,-24(s0)
}
    80001850:	0005051b          	sext.w	a0,a0
    80001854:	01813403          	ld	s0,24(sp)
    80001858:	02010113          	addi	sp,sp,32
    8000185c:	00008067          	ret

0000000080001860 <_Z4getcv>:



char getc(){
    80001860:	fe010113          	addi	sp,sp,-32
    80001864:	00813c23          	sd	s0,24(sp)
    80001868:	02010413          	addi	s0,sp,32
    8000186c:	04100793          	li	a5,65
    80001870:	00078513          	mv	a0,a5


    riscv_wr_a0(RISCV_SYS_GETC);
    __asm__ volatile("ecall");
    80001874:	00000073          	ecall
    volatile long a0;
    __asm__ volatile ("mv %0, a0" : "=r"(a0));
    80001878:	00050793          	mv	a5,a0
    8000187c:	fef43423          	sd	a5,-24(s0)
    return (char)a0;
    80001880:	fe843503          	ld	a0,-24(s0)
}
    80001884:	0ff57513          	andi	a0,a0,255
    80001888:	01813403          	ld	s0,24(sp)
    8000188c:	02010113          	addi	sp,sp,32
    80001890:	00008067          	ret

0000000080001894 <_Z4putcc>:
void putc (char c){
    80001894:	ff010113          	addi	sp,sp,-16
    80001898:	00813423          	sd	s0,8(sp)
    8000189c:	01010413          	addi	s0,sp,16
GENERATE_WRRD(a1);
    800018a0:	00050593          	mv	a1,a0
GENERATE_WRRD(a0);
    800018a4:	04200793          	li	a5,66
    800018a8:	00078513          	mv	a0,a5
    riscv_wr_a1((uint64)c);
    riscv_wr_a0(RISCV_SYS_PUTC);
    __asm__ volatile("ecall");
    800018ac:	00000073          	ecall
}
    800018b0:	00813403          	ld	s0,8(sp)
    800018b4:	01010113          	addi	sp,sp,16
    800018b8:	00008067          	ret

00000000800018bc <_Z4pingP3TCB>:


void ping(thread_t handle){
    800018bc:	ff010113          	addi	sp,sp,-16
    800018c0:	00813423          	sd	s0,8(sp)
    800018c4:	01010413          	addi	s0,sp,16
GENERATE_WRRD(a1);
    800018c8:	00050593          	mv	a1,a0
GENERATE_WRRD(a0);
    800018cc:	00300793          	li	a5,3
    800018d0:	00078513          	mv	a0,a5
    riscv_wr_a1((uint64)handle);
    riscv_wr_a0(RISCV_SYS_PING);
    __asm__ volatile("ecall");
    800018d4:	00000073          	ecall
    800018d8:	00813403          	ld	s0,8(sp)
    800018dc:	01010113          	addi	sp,sp,16
    800018e0:	00008067          	ret

00000000800018e4 <_Z41__static_initialization_and_destruction_0ii>:
        return;
    }
    idleThread =  TCB::createThread(start_routine, stack_space, kernel_stack_space, nullptr, false);


    800018e4:	ff010113          	addi	sp,sp,-16
    800018e8:	00813423          	sd	s0,8(sp)
    800018ec:	01010413          	addi	s0,sp,16
    800018f0:	00100793          	li	a5,1
    800018f4:	00f50863          	beq	a0,a5,80001904 <_Z41__static_initialization_and_destruction_0ii+0x20>
    800018f8:	00813403          	ld	s0,8(sp)
    800018fc:	01010113          	addi	sp,sp,16
    80001900:	00008067          	ret
    80001904:	000107b7          	lui	a5,0x10
    80001908:	fff78793          	addi	a5,a5,-1 # ffff <_entry-0x7fff0001>
    8000190c:	fef596e3          	bne	a1,a5,800018f8 <_Z41__static_initialization_and_destruction_0ii+0x14>
    };

    Elem *head, *tail;

public:
    List() : head(0), tail(0) {}
    80001910:	0000b797          	auipc	a5,0xb
    80001914:	3a078793          	addi	a5,a5,928 # 8000ccb0 <_ZN9Scheduler16readyThreadQueueE>
    80001918:	0007b023          	sd	zero,0(a5)
    8000191c:	0007b423          	sd	zero,8(a5)
    80001920:	fd9ff06f          	j	800018f8 <_Z41__static_initialization_and_destruction_0ii+0x14>

0000000080001924 <_ZN9Scheduler3getEv>:
{
    80001924:	fe010113          	addi	sp,sp,-32
    80001928:	00113c23          	sd	ra,24(sp)
    8000192c:	00813823          	sd	s0,16(sp)
    80001930:	00913423          	sd	s1,8(sp)
    80001934:	02010413          	addi	s0,sp,32
        }
    }

    T *removeFirst()
    {
        if (!head) { return 0; }
    80001938:	0000b517          	auipc	a0,0xb
    8000193c:	37853503          	ld	a0,888(a0) # 8000ccb0 <_ZN9Scheduler16readyThreadQueueE>
    80001940:	04050463          	beqz	a0,80001988 <_ZN9Scheduler3getEv+0x64>

        Elem *elem = head;
        head = head->next;
    80001944:	00853783          	ld	a5,8(a0)
    80001948:	0000b717          	auipc	a4,0xb
    8000194c:	36f73423          	sd	a5,872(a4) # 8000ccb0 <_ZN9Scheduler16readyThreadQueueE>
        if (!head) { tail = 0; }
    80001950:	02078663          	beqz	a5,8000197c <_ZN9Scheduler3getEv+0x58>

        T *ret = elem->data;
    80001954:	00053483          	ld	s1,0(a0)
            MemoryAllocator::free(ptr);
    80001958:	00002097          	auipc	ra,0x2
    8000195c:	030080e7          	jalr	48(ra) # 80003988 <_ZN15MemoryAllocator4freeEPv>
    return temp?temp:idleThread;
    80001960:	02048463          	beqz	s1,80001988 <_ZN9Scheduler3getEv+0x64>
}
    80001964:	00048513          	mv	a0,s1
    80001968:	01813083          	ld	ra,24(sp)
    8000196c:	01013403          	ld	s0,16(sp)
    80001970:	00813483          	ld	s1,8(sp)
    80001974:	02010113          	addi	sp,sp,32
    80001978:	00008067          	ret
        if (!head) { tail = 0; }
    8000197c:	0000b797          	auipc	a5,0xb
    80001980:	3207be23          	sd	zero,828(a5) # 8000ccb8 <_ZN9Scheduler16readyThreadQueueE+0x8>
    80001984:	fd1ff06f          	j	80001954 <_ZN9Scheduler3getEv+0x30>
    return temp?temp:idleThread;
    80001988:	0000b497          	auipc	s1,0xb
    8000198c:	3384b483          	ld	s1,824(s1) # 8000ccc0 <_ZN9Scheduler10idleThreadE>
    80001990:	fd5ff06f          	j	80001964 <_ZN9Scheduler3getEv+0x40>

0000000080001994 <_ZN9Scheduler3putEP3TCB>:
{
    80001994:	fe010113          	addi	sp,sp,-32
    80001998:	00113c23          	sd	ra,24(sp)
    8000199c:	00813823          	sd	s0,16(sp)
    800019a0:	00913423          	sd	s1,8(sp)
    800019a4:	02010413          	addi	s0,sp,32
    800019a8:	00050493          	mv	s1,a0
        void* allocated = MemoryAllocator::malloc_bytes(sizeof(Elem));
    800019ac:	01000513          	li	a0,16
    800019b0:	00002097          	auipc	ra,0x2
    800019b4:	f98080e7          	jalr	-104(ra) # 80003948 <_ZN15MemoryAllocator12malloc_bytesEm>
        Elem(T *data, Elem *next) : data(data), next(next) {}
    800019b8:	00953023          	sd	s1,0(a0)
    800019bc:	00053423          	sd	zero,8(a0)
        if (tail)
    800019c0:	0000b797          	auipc	a5,0xb
    800019c4:	2f87b783          	ld	a5,760(a5) # 8000ccb8 <_ZN9Scheduler16readyThreadQueueE+0x8>
    800019c8:	02078263          	beqz	a5,800019ec <_ZN9Scheduler3putEP3TCB+0x58>
            tail->next = elem;
    800019cc:	00a7b423          	sd	a0,8(a5)
            tail = elem;
    800019d0:	0000b797          	auipc	a5,0xb
    800019d4:	2ea7b423          	sd	a0,744(a5) # 8000ccb8 <_ZN9Scheduler16readyThreadQueueE+0x8>
}
    800019d8:	01813083          	ld	ra,24(sp)
    800019dc:	01013403          	ld	s0,16(sp)
    800019e0:	00813483          	ld	s1,8(sp)
    800019e4:	02010113          	addi	sp,sp,32
    800019e8:	00008067          	ret
            head = tail = elem;
    800019ec:	0000b797          	auipc	a5,0xb
    800019f0:	2c478793          	addi	a5,a5,708 # 8000ccb0 <_ZN9Scheduler16readyThreadQueueE>
    800019f4:	00a7b423          	sd	a0,8(a5)
    800019f8:	00a7b023          	sd	a0,0(a5)
    800019fc:	fddff06f          	j	800019d8 <_ZN9Scheduler3putEP3TCB+0x44>

0000000080001a00 <_ZN9Scheduler7setIdleEPFvPvE>:
{
    80001a00:	fe010113          	addi	sp,sp,-32
    80001a04:	00113c23          	sd	ra,24(sp)
    80001a08:	00813823          	sd	s0,16(sp)
    80001a0c:	00913423          	sd	s1,8(sp)
    80001a10:	01213023          	sd	s2,0(sp)
    80001a14:	02010413          	addi	s0,sp,32
    80001a18:	00050913          	mv	s2,a0
    uint64* kernel_stack_space = new uint64[TCB::KERNEL_STACK_SIZE];
    80001a1c:	00002537          	lui	a0,0x2
    80001a20:	00000097          	auipc	ra,0x0
    80001a24:	3d0080e7          	jalr	976(ra) # 80001df0 <_Znam>
    if(!kernel_stack_space) {
    80001a28:	04050063          	beqz	a0,80001a68 <_ZN9Scheduler7setIdleEPFvPvE+0x68>
    80001a2c:	00050493          	mv	s1,a0
    if(start_routine) stack_space = new uint64[DEFAULT_STACK_SIZE];
    80001a30:	04090863          	beqz	s2,80001a80 <_ZN9Scheduler7setIdleEPFvPvE+0x80>
    80001a34:	00008537          	lui	a0,0x8
    80001a38:	00000097          	auipc	ra,0x0
    80001a3c:	3b8080e7          	jalr	952(ra) # 80001df0 <_Znam>
    80001a40:	00050593          	mv	a1,a0
    if(!stack_space) {
    80001a44:	02050e63          	beqz	a0,80001a80 <_ZN9Scheduler7setIdleEPFvPvE+0x80>
    idleThread =  TCB::createThread(start_routine, stack_space, kernel_stack_space, nullptr, false);
    80001a48:	00000713          	li	a4,0
    80001a4c:	00000693          	li	a3,0
    80001a50:	00048613          	mv	a2,s1
    80001a54:	00090513          	mv	a0,s2
    80001a58:	00001097          	auipc	ra,0x1
    80001a5c:	310080e7          	jalr	784(ra) # 80002d68 <_ZN3TCB12createThreadEPFvPvEPmS3_S0_b>
    80001a60:	0000b797          	auipc	a5,0xb
    80001a64:	26a7b023          	sd	a0,608(a5) # 8000ccc0 <_ZN9Scheduler10idleThreadE>
    80001a68:	01813083          	ld	ra,24(sp)
    80001a6c:	01013403          	ld	s0,16(sp)
    80001a70:	00813483          	ld	s1,8(sp)
    80001a74:	00013903          	ld	s2,0(sp)
    80001a78:	02010113          	addi	sp,sp,32
    80001a7c:	00008067          	ret
        delete[] kernel_stack_space;
    80001a80:	00048513          	mv	a0,s1
    80001a84:	00000097          	auipc	ra,0x0
    80001a88:	43c080e7          	jalr	1084(ra) # 80001ec0 <_ZdaPv>
        return;
    80001a8c:	fddff06f          	j	80001a68 <_ZN9Scheduler7setIdleEPFvPvE+0x68>

0000000080001a90 <_GLOBAL__sub_I__ZN9Scheduler16readyThreadQueueE>:
    80001a90:	ff010113          	addi	sp,sp,-16
    80001a94:	00113423          	sd	ra,8(sp)
    80001a98:	00813023          	sd	s0,0(sp)
    80001a9c:	01010413          	addi	s0,sp,16
    80001aa0:	000105b7          	lui	a1,0x10
    80001aa4:	fff58593          	addi	a1,a1,-1 # ffff <_entry-0x7fff0001>
    80001aa8:	00100513          	li	a0,1
    80001aac:	00000097          	auipc	ra,0x0
    80001ab0:	e38080e7          	jalr	-456(ra) # 800018e4 <_Z41__static_initialization_and_destruction_0ii>
    80001ab4:	00813083          	ld	ra,8(sp)
    80001ab8:	00013403          	ld	s0,0(sp)
    80001abc:	01010113          	addi	sp,sp,16
    80001ac0:	00008067          	ret

0000000080001ac4 <main>:
BoundedBuffer<char>* inputBuffer;
BoundedBuffer<char>* outputBuffer;


int main()
{
    80001ac4:	fe010113          	addi	sp,sp,-32
    80001ac8:	00113c23          	sd	ra,24(sp)
    80001acc:	00813823          	sd	s0,16(sp)
    80001ad0:	00913423          	sd	s1,8(sp)
    80001ad4:	01213023          	sd	s2,0(sp)
    80001ad8:	02010413          	addi	s0,sp,32
            return true;
        else return false;
    }

    void* operator new(size_t size){
        return MemoryAllocator::malloc_bytes(size);
    80001adc:	03000513          	li	a0,48
    80001ae0:	00002097          	auipc	ra,0x2
    80001ae4:	e68080e7          	jalr	-408(ra) # 80003948 <_ZN15MemoryAllocator12malloc_bytesEm>
    80001ae8:	00050493          	mv	s1,a0

    inputBuffer = new BoundedBuffer<char>(256);
    80001aec:	10000593          	li	a1,256
    80001af0:	00000097          	auipc	ra,0x0
    80001af4:	140080e7          	jalr	320(ra) # 80001c30 <_ZN13BoundedBufferIcEC1Ei>
    80001af8:	0000b797          	auipc	a5,0xb
    80001afc:	1c97b823          	sd	s1,464(a5) # 8000ccc8 <inputBuffer>
    80001b00:	03000513          	li	a0,48
    80001b04:	00002097          	auipc	ra,0x2
    80001b08:	e44080e7          	jalr	-444(ra) # 80003948 <_ZN15MemoryAllocator12malloc_bytesEm>
    80001b0c:	00050493          	mv	s1,a0
    outputBuffer = new BoundedBuffer<char>(256);
    80001b10:	10000593          	li	a1,256
    80001b14:	00000097          	auipc	ra,0x0
    80001b18:	11c080e7          	jalr	284(ra) # 80001c30 <_ZN13BoundedBufferIcEC1Ei>
    80001b1c:	03c0006f          	j	80001b58 <main+0x94>
    80001b20:	00050913          	mv	s2,a0
    }
    void operator delete (void *memory){
        MemoryAllocator::free(memory);
    80001b24:	00048513          	mv	a0,s1
    80001b28:	00002097          	auipc	ra,0x2
    80001b2c:	e60080e7          	jalr	-416(ra) # 80003988 <_ZN15MemoryAllocator4freeEPv>
    80001b30:	00090513          	mv	a0,s2
    80001b34:	0000c097          	auipc	ra,0xc
    80001b38:	314080e7          	jalr	788(ra) # 8000de48 <_Unwind_Resume>
    80001b3c:	00050913          	mv	s2,a0
    80001b40:	00048513          	mv	a0,s1
    80001b44:	00002097          	auipc	ra,0x2
    80001b48:	e44080e7          	jalr	-444(ra) # 80003988 <_ZN15MemoryAllocator4freeEPv>
    80001b4c:	00090513          	mv	a0,s2
    80001b50:	0000c097          	auipc	ra,0xc
    80001b54:	2f8080e7          	jalr	760(ra) # 8000de48 <_Unwind_Resume>
    80001b58:	0000b917          	auipc	s2,0xb
    80001b5c:	17090913          	addi	s2,s2,368 # 8000ccc8 <inputBuffer>
    80001b60:	00993423          	sd	s1,8(s2)
    RISCV::setSTVEC2((uint64)(&stvec_table)|1);
    80001b64:	0000b797          	auipc	a5,0xb
    80001b68:	0b47b783          	ld	a5,180(a5) # 8000cc18 <_GLOBAL_OFFSET_TABLE_+0x28>
    80001b6c:	0017e793          	ori	a5,a5,1

};

 inline void RISCV::setSTVEC2(uint64 wtf){
    
     __asm__ volatile("csrw stvec, %[wtf]"::[wtf]"r"(wtf));
    80001b70:	10579073          	csrw	stvec,a5
        __asm__ volatile("csrw stvec, %[vector]":: [vector] "r" ((uint64)(stvec_table)|0x1));
    80001b74:	10579073          	csrw	stvec,a5
    RISCV::setSTVEC(&stvec_table);


    void* allocated = MemoryAllocator::malloc_bytes(sizeof(uint64[TCB::KERNEL_STACK_SIZE]));
    80001b78:	00002537          	lui	a0,0x2
    80001b7c:	00002097          	auipc	ra,0x2
    80001b80:	dcc080e7          	jalr	-564(ra) # 80003948 <_ZN15MemoryAllocator12malloc_bytesEm>
    80001b84:	00050613          	mv	a2,a0
    uint64* kernelStack = (uint64*)allocated;

    mainThread = TCB::createThread(nullptr,nullptr,kernelStack);
    80001b88:	00100713          	li	a4,1
    80001b8c:	00000693          	li	a3,0
    80001b90:	00000593          	li	a1,0
    80001b94:	00000513          	li	a0,0
    80001b98:	00001097          	auipc	ra,0x1
    80001b9c:	1d0080e7          	jalr	464(ra) # 80002d68 <_ZN3TCB12createThreadEPFvPvEPmS3_S0_b>
    80001ba0:	00a93823          	sd	a0,16(s2)

    TCB::running = mainThread;
    80001ba4:	0000b797          	auipc	a5,0xb
    80001ba8:	09c7b783          	ld	a5,156(a5) # 8000cc40 <_GLOBAL_OFFSET_TABLE_+0x50>
    80001bac:	00a7b023          	sd	a0,0(a5)

    Scheduler::setIdle(TCB::idleThread);
    80001bb0:	0000b517          	auipc	a0,0xb
    80001bb4:	08853503          	ld	a0,136(a0) # 8000cc38 <_GLOBAL_OFFSET_TABLE_+0x48>
    80001bb8:	00000097          	auipc	ra,0x0
    80001bbc:	e48080e7          	jalr	-440(ra) # 80001a00 <_ZN9Scheduler7setIdleEPFvPvE>
GENERATE_CSR(sstatus);
    80001bc0:	00200793          	li	a5,2
    80001bc4:	1007a073          	csrs	sstatus,a5
    

    RISCV::enableExternalInterrupts();
    RISCV::switchToUserLevelMode();
    80001bc8:	00001097          	auipc	ra,0x1
    80001bcc:	d88080e7          	jalr	-632(ra) # 80002950 <_ZN5RISCV21switchToUserLevelModeEv>

    thread_create(&consoleThread, TCB::consoleWriteThread,nullptr);
    80001bd0:	00000613          	li	a2,0
    80001bd4:	0000b597          	auipc	a1,0xb
    80001bd8:	07c5b583          	ld	a1,124(a1) # 8000cc50 <_GLOBAL_OFFSET_TABLE_+0x60>
    80001bdc:	0000b517          	auipc	a0,0xb
    80001be0:	10450513          	addi	a0,a0,260 # 8000cce0 <consoleThread>
    80001be4:	00000097          	auipc	ra,0x0
    80001be8:	9fc080e7          	jalr	-1540(ra) # 800015e0 <_Z13thread_createPP3TCBPFvPvES2_>


    thread_create(&userMainThread,userMain, nullptr );
    80001bec:	00000613          	li	a2,0
    80001bf0:	0000b597          	auipc	a1,0xb
    80001bf4:	0405b583          	ld	a1,64(a1) # 8000cc30 <_GLOBAL_OFFSET_TABLE_+0x40>
    80001bf8:	0000b517          	auipc	a0,0xb
    80001bfc:	0f050513          	addi	a0,a0,240 # 8000cce8 <userMainThread>
    80001c00:	00000097          	auipc	ra,0x0
    80001c04:	9e0080e7          	jalr	-1568(ra) # 800015e0 <_Z13thread_createPP3TCBPFvPvES2_>
    thread_join(userMainThread);
    80001c08:	02093503          	ld	a0,32(s2)
    80001c0c:	00000097          	auipc	ra,0x0
    80001c10:	b00080e7          	jalr	-1280(ra) # 8000170c <_Z11thread_joinP3TCB>
    //thread_join(consoleThread);
    return 0;
    80001c14:	00000513          	li	a0,0
    80001c18:	01813083          	ld	ra,24(sp)
    80001c1c:	01013403          	ld	s0,16(sp)
    80001c20:	00813483          	ld	s1,8(sp)
    80001c24:	00013903          	ld	s2,0(sp)
    80001c28:	02010113          	addi	sp,sp,32
    80001c2c:	00008067          	ret

0000000080001c30 <_ZN13BoundedBufferIcEC1Ei>:
    BoundedBuffer(int size=256){
    80001c30:	fe010113          	addi	sp,sp,-32
    80001c34:	00113c23          	sd	ra,24(sp)
    80001c38:	00813823          	sd	s0,16(sp)
    80001c3c:	00913423          	sd	s1,8(sp)
    80001c40:	01213023          	sd	s2,0(sp)
    80001c44:	02010413          	addi	s0,sp,32
    80001c48:	00050493          	mv	s1,a0
    80001c4c:	00058913          	mv	s2,a1
        this-> mutex = new _sem(1);
    80001c50:	02000513          	li	a0,32
    80001c54:	00002097          	auipc	ra,0x2
    80001c58:	980080e7          	jalr	-1664(ra) # 800035d4 <_ZN4_semnwEm>
#include "RISCV.hpp"
#include "TCB.hpp"

class _sem {
    public:
        _sem(unsigned short init = 1) : val(init){}
    80001c5c:	00100793          	li	a5,1
    80001c60:	00f52023          	sw	a5,0(a0)
    80001c64:	00053423          	sd	zero,8(a0)
    List() : head(0), tail(0) {}
    80001c68:	00053823          	sd	zero,16(a0)
    80001c6c:	00053c23          	sd	zero,24(a0)
    80001c70:	00a4bc23          	sd	a0,24(s1)
        this-> notEmpty = new _sem(0);
    80001c74:	02000513          	li	a0,32
    80001c78:	00002097          	auipc	ra,0x2
    80001c7c:	95c080e7          	jalr	-1700(ra) # 800035d4 <_ZN4_semnwEm>
    80001c80:	00052023          	sw	zero,0(a0)
    80001c84:	00053423          	sd	zero,8(a0)
    80001c88:	00053823          	sd	zero,16(a0)
    80001c8c:	00053c23          	sd	zero,24(a0)
    80001c90:	02a4b023          	sd	a0,32(s1)
        this-> notFull = new _sem(0);
    80001c94:	02000513          	li	a0,32
    80001c98:	00002097          	auipc	ra,0x2
    80001c9c:	93c080e7          	jalr	-1732(ra) # 800035d4 <_ZN4_semnwEm>
    80001ca0:	00052023          	sw	zero,0(a0)
    80001ca4:	00053423          	sd	zero,8(a0)
    80001ca8:	00053823          	sd	zero,16(a0)
    80001cac:	00053c23          	sd	zero,24(a0)
    80001cb0:	02a4b423          	sd	a0,40(s1)
        this-> size = size;
    80001cb4:	0124a423          	sw	s2,8(s1)
        this->front=this->rear = -1;
    80001cb8:	fff00793          	li	a5,-1
    80001cbc:	00f4a623          	sw	a5,12(s1)
    80001cc0:	00f4a823          	sw	a5,16(s1)
        this->buffer = (T*) MemoryAllocator::malloc_bytes(size*sizeof(T));
    80001cc4:	00090513          	mv	a0,s2
    80001cc8:	00002097          	auipc	ra,0x2
    80001ccc:	c80080e7          	jalr	-896(ra) # 80003948 <_ZN15MemoryAllocator12malloc_bytesEm>
    80001cd0:	00a4b023          	sd	a0,0(s1)
    }
    80001cd4:	01813083          	ld	ra,24(sp)
    80001cd8:	01013403          	ld	s0,16(sp)
    80001cdc:	00813483          	ld	s1,8(sp)
    80001ce0:	00013903          	ld	s2,0(sp)
    80001ce4:	02010113          	addi	sp,sp,32
    80001ce8:	00008067          	ret

0000000080001cec <_ZN6Thread7wrapperEPv>:
    this->arg = this;
    this->myHandle = nullptr;
}

void Thread::wrapper(void* ptr) {
    if(ptr) ((Thread*)ptr)->run();
    80001cec:	02050863          	beqz	a0,80001d1c <_ZN6Thread7wrapperEPv+0x30>
void Thread::wrapper(void* ptr) {
    80001cf0:	ff010113          	addi	sp,sp,-16
    80001cf4:	00113423          	sd	ra,8(sp)
    80001cf8:	00813023          	sd	s0,0(sp)
    80001cfc:	01010413          	addi	s0,sp,16
    if(ptr) ((Thread*)ptr)->run();
    80001d00:	00053783          	ld	a5,0(a0)
    80001d04:	0107b783          	ld	a5,16(a5)
    80001d08:	000780e7          	jalr	a5
}
    80001d0c:	00813083          	ld	ra,8(sp)
    80001d10:	00013403          	ld	s0,0(sp)
    80001d14:	01010113          	addi	sp,sp,16
    80001d18:	00008067          	ret
    80001d1c:	00008067          	ret

0000000080001d20 <_ZN6ThreadD1Ev>:
Thread::~Thread() {
    80001d20:	fe010113          	addi	sp,sp,-32
    80001d24:	00113c23          	sd	ra,24(sp)
    80001d28:	00813823          	sd	s0,16(sp)
    80001d2c:	00913423          	sd	s1,8(sp)
    80001d30:	02010413          	addi	s0,sp,32
    80001d34:	0000b797          	auipc	a5,0xb
    80001d38:	ac478793          	addi	a5,a5,-1340 # 8000c7f8 <_ZTV6Thread+0x10>
    80001d3c:	00f53023          	sd	a5,0(a0)
    delete this->myHandle;
    80001d40:	00853483          	ld	s1,8(a0)
    80001d44:	00048e63          	beqz	s1,80001d60 <_ZN6ThreadD1Ev+0x40>
    80001d48:	00048513          	mv	a0,s1
    80001d4c:	00001097          	auipc	ra,0x1
    80001d50:	fd0080e7          	jalr	-48(ra) # 80002d1c <_ZN3TCBD1Ev>
    80001d54:	00048513          	mv	a0,s1
    80001d58:	00001097          	auipc	ra,0x1
    80001d5c:	efc080e7          	jalr	-260(ra) # 80002c54 <_ZN3TCBdlEPv>
}
    80001d60:	01813083          	ld	ra,24(sp)
    80001d64:	01013403          	ld	s0,16(sp)
    80001d68:	00813483          	ld	s1,8(sp)
    80001d6c:	02010113          	addi	sp,sp,32
    80001d70:	00008067          	ret

0000000080001d74 <_ZN9SemaphoreD1Ev>:

Semaphore::Semaphore(unsigned int init) {
    myHandle = new _sem(init);
}

Semaphore::~Semaphore() {
    80001d74:	fe010113          	addi	sp,sp,-32
    80001d78:	00113c23          	sd	ra,24(sp)
    80001d7c:	00813823          	sd	s0,16(sp)
    80001d80:	00913423          	sd	s1,8(sp)
    80001d84:	02010413          	addi	s0,sp,32
    80001d88:	0000b797          	auipc	a5,0xb
    80001d8c:	a9878793          	addi	a5,a5,-1384 # 8000c820 <_ZTV9Semaphore+0x10>
    80001d90:	00f53023          	sd	a5,0(a0)
    delete myHandle;
    80001d94:	00853483          	ld	s1,8(a0)
    80001d98:	00048e63          	beqz	s1,80001db4 <_ZN9SemaphoreD1Ev+0x40>
    80001d9c:	00048513          	mv	a0,s1
    80001da0:	00002097          	auipc	ra,0x2
    80001da4:	8a0080e7          	jalr	-1888(ra) # 80003640 <_ZN4_semD1Ev>
    80001da8:	00048513          	mv	a0,s1
    80001dac:	00002097          	auipc	ra,0x2
    80001db0:	86c080e7          	jalr	-1940(ra) # 80003618 <_ZN4_semdlEPv>
}
    80001db4:	01813083          	ld	ra,24(sp)
    80001db8:	01013403          	ld	s0,16(sp)
    80001dbc:	00813483          	ld	s1,8(sp)
    80001dc0:	02010113          	addi	sp,sp,32
    80001dc4:	00008067          	ret

0000000080001dc8 <_Znwm>:
{
    80001dc8:	ff010113          	addi	sp,sp,-16
    80001dcc:	00113423          	sd	ra,8(sp)
    80001dd0:	00813023          	sd	s0,0(sp)
    80001dd4:	01010413          	addi	s0,sp,16
    return mem_alloc(n);
    80001dd8:	fffff097          	auipc	ra,0xfffff
    80001ddc:	784080e7          	jalr	1924(ra) # 8000155c <_Z9mem_allocm>
}
    80001de0:	00813083          	ld	ra,8(sp)
    80001de4:	00013403          	ld	s0,0(sp)
    80001de8:	01010113          	addi	sp,sp,16
    80001dec:	00008067          	ret

0000000080001df0 <_Znam>:
{
    80001df0:	ff010113          	addi	sp,sp,-16
    80001df4:	00113423          	sd	ra,8(sp)
    80001df8:	00813023          	sd	s0,0(sp)
    80001dfc:	01010413          	addi	s0,sp,16
    return mem_alloc(n);
    80001e00:	fffff097          	auipc	ra,0xfffff
    80001e04:	75c080e7          	jalr	1884(ra) # 8000155c <_Z9mem_allocm>
}
    80001e08:	00813083          	ld	ra,8(sp)
    80001e0c:	00013403          	ld	s0,0(sp)
    80001e10:	01010113          	addi	sp,sp,16
    80001e14:	00008067          	ret

0000000080001e18 <_ZdlPv>:
{
    80001e18:	ff010113          	addi	sp,sp,-16
    80001e1c:	00113423          	sd	ra,8(sp)
    80001e20:	00813023          	sd	s0,0(sp)
    80001e24:	01010413          	addi	s0,sp,16
    mem_free(p);
    80001e28:	fffff097          	auipc	ra,0xfffff
    80001e2c:	780080e7          	jalr	1920(ra) # 800015a8 <_Z8mem_freePv>
}
    80001e30:	00813083          	ld	ra,8(sp)
    80001e34:	00013403          	ld	s0,0(sp)
    80001e38:	01010113          	addi	sp,sp,16
    80001e3c:	00008067          	ret

0000000080001e40 <_ZN6ThreadD0Ev>:
Thread::~Thread() {
    80001e40:	fe010113          	addi	sp,sp,-32
    80001e44:	00113c23          	sd	ra,24(sp)
    80001e48:	00813823          	sd	s0,16(sp)
    80001e4c:	00913423          	sd	s1,8(sp)
    80001e50:	02010413          	addi	s0,sp,32
    80001e54:	00050493          	mv	s1,a0
}
    80001e58:	00000097          	auipc	ra,0x0
    80001e5c:	ec8080e7          	jalr	-312(ra) # 80001d20 <_ZN6ThreadD1Ev>
    80001e60:	00048513          	mv	a0,s1
    80001e64:	00000097          	auipc	ra,0x0
    80001e68:	fb4080e7          	jalr	-76(ra) # 80001e18 <_ZdlPv>
    80001e6c:	01813083          	ld	ra,24(sp)
    80001e70:	01013403          	ld	s0,16(sp)
    80001e74:	00813483          	ld	s1,8(sp)
    80001e78:	02010113          	addi	sp,sp,32
    80001e7c:	00008067          	ret

0000000080001e80 <_ZN9SemaphoreD0Ev>:
Semaphore::~Semaphore() {
    80001e80:	fe010113          	addi	sp,sp,-32
    80001e84:	00113c23          	sd	ra,24(sp)
    80001e88:	00813823          	sd	s0,16(sp)
    80001e8c:	00913423          	sd	s1,8(sp)
    80001e90:	02010413          	addi	s0,sp,32
    80001e94:	00050493          	mv	s1,a0
}
    80001e98:	00000097          	auipc	ra,0x0
    80001e9c:	edc080e7          	jalr	-292(ra) # 80001d74 <_ZN9SemaphoreD1Ev>
    80001ea0:	00048513          	mv	a0,s1
    80001ea4:	00000097          	auipc	ra,0x0
    80001ea8:	f74080e7          	jalr	-140(ra) # 80001e18 <_ZdlPv>
    80001eac:	01813083          	ld	ra,24(sp)
    80001eb0:	01013403          	ld	s0,16(sp)
    80001eb4:	00813483          	ld	s1,8(sp)
    80001eb8:	02010113          	addi	sp,sp,32
    80001ebc:	00008067          	ret

0000000080001ec0 <_ZdaPv>:
{
    80001ec0:	ff010113          	addi	sp,sp,-16
    80001ec4:	00113423          	sd	ra,8(sp)
    80001ec8:	00813023          	sd	s0,0(sp)
    80001ecc:	01010413          	addi	s0,sp,16
    mem_free(p);
    80001ed0:	fffff097          	auipc	ra,0xfffff
    80001ed4:	6d8080e7          	jalr	1752(ra) # 800015a8 <_Z8mem_freePv>
}
    80001ed8:	00813083          	ld	ra,8(sp)
    80001edc:	00013403          	ld	s0,0(sp)
    80001ee0:	01010113          	addi	sp,sp,16
    80001ee4:	00008067          	ret

0000000080001ee8 <_ZN6ThreadC1EPFvPvES0_>:
Thread::Thread(void (*body)(void *), void *arg) {
    80001ee8:	ff010113          	addi	sp,sp,-16
    80001eec:	00813423          	sd	s0,8(sp)
    80001ef0:	01010413          	addi	s0,sp,16
    80001ef4:	0000b797          	auipc	a5,0xb
    80001ef8:	90478793          	addi	a5,a5,-1788 # 8000c7f8 <_ZTV6Thread+0x10>
    80001efc:	00f53023          	sd	a5,0(a0)
    this->body = body;
    80001f00:	00b53823          	sd	a1,16(a0)
    this->arg = arg;
    80001f04:	00c53c23          	sd	a2,24(a0)
    this->myHandle = nullptr;
    80001f08:	00053423          	sd	zero,8(a0)
}
    80001f0c:	00813403          	ld	s0,8(sp)
    80001f10:	01010113          	addi	sp,sp,16
    80001f14:	00008067          	ret

0000000080001f18 <_ZN6Thread5startEv>:
int Thread::start() {
    80001f18:	ff010113          	addi	sp,sp,-16
    80001f1c:	00113423          	sd	ra,8(sp)
    80001f20:	00813023          	sd	s0,0(sp)
    80001f24:	01010413          	addi	s0,sp,16
    return thread_create(&this->myHandle, body, arg);
    80001f28:	01853603          	ld	a2,24(a0)
    80001f2c:	01053583          	ld	a1,16(a0)
    80001f30:	00850513          	addi	a0,a0,8
    80001f34:	fffff097          	auipc	ra,0xfffff
    80001f38:	6ac080e7          	jalr	1708(ra) # 800015e0 <_Z13thread_createPP3TCBPFvPvES2_>
}
    80001f3c:	00813083          	ld	ra,8(sp)
    80001f40:	00013403          	ld	s0,0(sp)
    80001f44:	01010113          	addi	sp,sp,16
    80001f48:	00008067          	ret

0000000080001f4c <_ZN6Thread4joinEv>:
void Thread::join() {
    80001f4c:	ff010113          	addi	sp,sp,-16
    80001f50:	00113423          	sd	ra,8(sp)
    80001f54:	00813023          	sd	s0,0(sp)
    80001f58:	01010413          	addi	s0,sp,16
    thread_join(this->myHandle);
    80001f5c:	00853503          	ld	a0,8(a0)
    80001f60:	fffff097          	auipc	ra,0xfffff
    80001f64:	7ac080e7          	jalr	1964(ra) # 8000170c <_Z11thread_joinP3TCB>
}
    80001f68:	00813083          	ld	ra,8(sp)
    80001f6c:	00013403          	ld	s0,0(sp)
    80001f70:	01010113          	addi	sp,sp,16
    80001f74:	00008067          	ret

0000000080001f78 <_ZN6Thread8dispatchEv>:
void Thread::dispatch() {
    80001f78:	ff010113          	addi	sp,sp,-16
    80001f7c:	00113423          	sd	ra,8(sp)
    80001f80:	00813023          	sd	s0,0(sp)
    80001f84:	01010413          	addi	s0,sp,16
    thread_dispatch();
    80001f88:	fffff097          	auipc	ra,0xfffff
    80001f8c:	760080e7          	jalr	1888(ra) # 800016e8 <_Z15thread_dispatchv>
}
    80001f90:	00813083          	ld	ra,8(sp)
    80001f94:	00013403          	ld	s0,0(sp)
    80001f98:	01010113          	addi	sp,sp,16
    80001f9c:	00008067          	ret

0000000080001fa0 <_ZN6Thread5sleepEm>:
int Thread::sleep(time_t time) {
    80001fa0:	ff010113          	addi	sp,sp,-16
    80001fa4:	00113423          	sd	ra,8(sp)
    80001fa8:	00813023          	sd	s0,0(sp)
    80001fac:	01010413          	addi	s0,sp,16
    return time_sleep(time);
    80001fb0:	00000097          	auipc	ra,0x0
    80001fb4:	878080e7          	jalr	-1928(ra) # 80001828 <_Z10time_sleepm>
}
    80001fb8:	00813083          	ld	ra,8(sp)
    80001fbc:	00013403          	ld	s0,0(sp)
    80001fc0:	01010113          	addi	sp,sp,16
    80001fc4:	00008067          	ret

0000000080001fc8 <_ZN6ThreadC1Ev>:
Thread::Thread() {
    80001fc8:	ff010113          	addi	sp,sp,-16
    80001fcc:	00813423          	sd	s0,8(sp)
    80001fd0:	01010413          	addi	s0,sp,16
    80001fd4:	0000b797          	auipc	a5,0xb
    80001fd8:	82478793          	addi	a5,a5,-2012 # 8000c7f8 <_ZTV6Thread+0x10>
    80001fdc:	00f53023          	sd	a5,0(a0)
    this->body = Thread::wrapper; //&wrapper ?
    80001fe0:	00000797          	auipc	a5,0x0
    80001fe4:	d0c78793          	addi	a5,a5,-756 # 80001cec <_ZN6Thread7wrapperEPv>
    80001fe8:	00f53823          	sd	a5,16(a0)
    this->arg = this;
    80001fec:	00a53c23          	sd	a0,24(a0)
    this->myHandle = nullptr;
    80001ff0:	00053423          	sd	zero,8(a0)
}
    80001ff4:	00813403          	ld	s0,8(sp)
    80001ff8:	01010113          	addi	sp,sp,16
    80001ffc:	00008067          	ret

0000000080002000 <_ZN7Console4getcEv>:
char Console::getc() {
    80002000:	ff010113          	addi	sp,sp,-16
    80002004:	00113423          	sd	ra,8(sp)
    80002008:	00813023          	sd	s0,0(sp)
    8000200c:	01010413          	addi	s0,sp,16
    return ::getc();
    80002010:	00000097          	auipc	ra,0x0
    80002014:	850080e7          	jalr	-1968(ra) # 80001860 <_Z4getcv>
}
    80002018:	00813083          	ld	ra,8(sp)
    8000201c:	00013403          	ld	s0,0(sp)
    80002020:	01010113          	addi	sp,sp,16
    80002024:	00008067          	ret

0000000080002028 <_ZN7Console4putcEc>:
void Console::putc(char c) {
    80002028:	ff010113          	addi	sp,sp,-16
    8000202c:	00113423          	sd	ra,8(sp)
    80002030:	00813023          	sd	s0,0(sp)
    80002034:	01010413          	addi	s0,sp,16
    ::putc(c);
    80002038:	00000097          	auipc	ra,0x0
    8000203c:	85c080e7          	jalr	-1956(ra) # 80001894 <_Z4putcc>
}
    80002040:	00813083          	ld	ra,8(sp)
    80002044:	00013403          	ld	s0,0(sp)
    80002048:	01010113          	addi	sp,sp,16
    8000204c:	00008067          	ret

0000000080002050 <_ZN9Semaphore4waitEv>:
int Semaphore::wait() {
    80002050:	ff010113          	addi	sp,sp,-16
    80002054:	00113423          	sd	ra,8(sp)
    80002058:	00813023          	sd	s0,0(sp)
    8000205c:	01010413          	addi	s0,sp,16
    return sem_wait(myHandle);
    80002060:	00853503          	ld	a0,8(a0)
    80002064:	fffff097          	auipc	ra,0xfffff
    80002068:	754080e7          	jalr	1876(ra) # 800017b8 <_Z8sem_waitP4_sem>
}
    8000206c:	00813083          	ld	ra,8(sp)
    80002070:	00013403          	ld	s0,0(sp)
    80002074:	01010113          	addi	sp,sp,16
    80002078:	00008067          	ret

000000008000207c <_ZN9Semaphore6signalEv>:
int Semaphore::signal() {
    8000207c:	ff010113          	addi	sp,sp,-16
    80002080:	00113423          	sd	ra,8(sp)
    80002084:	00813023          	sd	s0,0(sp)
    80002088:	01010413          	addi	s0,sp,16
    return sem_signal(myHandle);
    8000208c:	00853503          	ld	a0,8(a0)
    80002090:	fffff097          	auipc	ra,0xfffff
    80002094:	760080e7          	jalr	1888(ra) # 800017f0 <_Z10sem_signalP4_sem>
}
    80002098:	00813083          	ld	ra,8(sp)
    8000209c:	00013403          	ld	s0,0(sp)
    800020a0:	01010113          	addi	sp,sp,16
    800020a4:	00008067          	ret

00000000800020a8 <_ZN9SemaphoreC1Ej>:
Semaphore::Semaphore(unsigned int init) {
    800020a8:	fe010113          	addi	sp,sp,-32
    800020ac:	00113c23          	sd	ra,24(sp)
    800020b0:	00813823          	sd	s0,16(sp)
    800020b4:	00913423          	sd	s1,8(sp)
    800020b8:	01213023          	sd	s2,0(sp)
    800020bc:	02010413          	addi	s0,sp,32
    800020c0:	00050913          	mv	s2,a0
    800020c4:	00058493          	mv	s1,a1
    800020c8:	0000a797          	auipc	a5,0xa
    800020cc:	75878793          	addi	a5,a5,1880 # 8000c820 <_ZTV9Semaphore+0x10>
    800020d0:	00f53023          	sd	a5,0(a0)
    myHandle = new _sem(init);
    800020d4:	02000513          	li	a0,32
    800020d8:	00001097          	auipc	ra,0x1
    800020dc:	4fc080e7          	jalr	1276(ra) # 800035d4 <_ZN4_semnwEm>
#include "RISCV.hpp"
#include "TCB.hpp"

class _sem {
    public:
        _sem(unsigned short init = 1) : val(init){}
    800020e0:	03049493          	slli	s1,s1,0x30
    800020e4:	0304d493          	srli	s1,s1,0x30
    800020e8:	00952023          	sw	s1,0(a0)
    800020ec:	00053423          	sd	zero,8(a0)
    };

    Elem *head, *tail;

public:
    List() : head(0), tail(0) {}
    800020f0:	00053823          	sd	zero,16(a0)
    800020f4:	00053c23          	sd	zero,24(a0)
    800020f8:	00a93423          	sd	a0,8(s2)
}
    800020fc:	01813083          	ld	ra,24(sp)
    80002100:	01013403          	ld	s0,16(sp)
    80002104:	00813483          	ld	s1,8(sp)
    80002108:	00013903          	ld	s2,0(sp)
    8000210c:	02010113          	addi	sp,sp,32
    80002110:	00008067          	ret

0000000080002114 <_ZN6Thread3runEv>:
    void join();
    static void dispatch ();
    static int sleep (time_t);
protected:
    Thread();
    virtual void run() {};
    80002114:	ff010113          	addi	sp,sp,-16
    80002118:	00813423          	sd	s0,8(sp)
    8000211c:	01010413          	addi	s0,sp,16
    80002120:	00813403          	ld	s0,8(sp)
    80002124:	01010113          	addi	sp,sp,16
    80002128:	00008067          	ret

000000008000212c <_ZN5RISCV13sys_call_pingEv>:
    riscv_csrw_sepc(sepc);
    TCB::switchSupervisorMode();

}

void RISCV::sys_call_ping(){
    8000212c:	fc010113          	addi	sp,sp,-64
    80002130:	02813c23          	sd	s0,56(sp)
    80002134:	04010413          	addi	s0,sp,64
        __asm__ volatile ("ld a1, 0 * 8(fp)");
    80002138:	00043583          	ld	a1,0(s0)
        __asm__ volatile ("ld a2, 1 * 8(fp)");
    8000213c:	00843603          	ld	a2,8(s0)
        __asm__ volatile ("ld a3, 2 * 8(fp)");
    80002140:	01043683          	ld	a3,16(s0)
        __asm__ volatile ("ld a4, 3 * 8(fp)");
    80002144:	01843703          	ld	a4,24(s0)
        __asm__ volatile ("ld a5, 4 * 8(fp)");
    80002148:	02043783          	ld	a5,32(s0)
    __asm__ volatile ("csrr %[sepc], sepc" : [sepc] "=r"(sepc));
    8000214c:	141027f3          	csrr	a5,sepc
    80002150:	fcf43c23          	sd	a5,-40(s0)
    return sepc;
    80002154:	fd843783          	ld	a5,-40(s0)
    loadArguments();
    uint64 volatile sepc = r_sepc() + 4;
    80002158:	00478793          	addi	a5,a5,4
    8000215c:	fef43423          	sd	a5,-24(s0)
GENERATE_CSR(sstatus);
    80002160:	100027f3          	csrr	a5,sstatus
    80002164:	fcf43823          	sd	a5,-48(s0)
    80002168:	fd043783          	ld	a5,-48(s0)
    uint64 volatile sstatus = riscv_csrr_sstatus();
    8000216c:	fef43023          	sd	a5,-32(s0)
GENERATE_WRRD(a1);
    80002170:	00058793          	mv	a5,a1
    80002174:	fcf43423          	sd	a5,-56(s0)
    80002178:	fc843783          	ld	a5,-56(s0)
    inline void decreseSleepTime(){
        sleepTime--;
    }

    void setPingedPending(){
        pending_ping = true;
    8000217c:	00100713          	li	a4,1
    80002180:	04e78ca3          	sb	a4,89(a5)

    thread_t handle = (thread_t)riscv_rd_a1();
    handle->setPingedPending();

    riscv_csrw_sstatus(sstatus);
    80002184:	fe043783          	ld	a5,-32(s0)
GENERATE_CSR(sstatus);
    80002188:	10079073          	csrw	sstatus,a5
    riscv_csrw_sepc(sepc);
    8000218c:	fe843783          	ld	a5,-24(s0)
GENERATE_CSR(sepc);
    80002190:	14179073          	csrw	sepc,a5
}
    80002194:	03813403          	ld	s0,56(sp)
    80002198:	04010113          	addi	sp,sp,64
    8000219c:	00008067          	ret

00000000800021a0 <_ZN5RISCV18sys_call_mem_allocEv>:
void RISCV::sys_call_mem_alloc(){
    800021a0:	fd010113          	addi	sp,sp,-48
    800021a4:	02113423          	sd	ra,40(sp)
    800021a8:	02813023          	sd	s0,32(sp)
    800021ac:	03010413          	addi	s0,sp,48
        __asm__ volatile ("ld a1, 0 * 8(fp)");
    800021b0:	00043583          	ld	a1,0(s0)
        __asm__ volatile ("ld a2, 1 * 8(fp)");
    800021b4:	00843603          	ld	a2,8(s0)
        __asm__ volatile ("ld a3, 2 * 8(fp)");
    800021b8:	01043683          	ld	a3,16(s0)
        __asm__ volatile ("ld a4, 3 * 8(fp)");
    800021bc:	01843703          	ld	a4,24(s0)
        __asm__ volatile ("ld a5, 4 * 8(fp)");
    800021c0:	02043783          	ld	a5,32(s0)
GENERATE_WRRD(a1);
    800021c4:	00058793          	mv	a5,a1
    800021c8:	fcf43c23          	sd	a5,-40(s0)
    800021cc:	fd843783          	ld	a5,-40(s0)
    uint64 volatile a1 = riscv_rd_a1();
    800021d0:	fef43423          	sd	a5,-24(s0)
GENERATE_CSR(sepc);
    800021d4:	141027f3          	csrr	a5,sepc
    800021d8:	fcf43823          	sd	a5,-48(s0)
    800021dc:	fd043783          	ld	a5,-48(s0)
    uint64 volatile sepc = riscv_csrr_sepc();
    800021e0:	fef43023          	sd	a5,-32(s0)
    void* ptr = MemoryAllocator::malloc((size_t)a1);
    800021e4:	fe843503          	ld	a0,-24(s0)
    800021e8:	00001097          	auipc	ra,0x1
    800021ec:	6b0080e7          	jalr	1712(ra) # 80003898 <_ZN15MemoryAllocator6mallocEm>
GENERATE_WRRD(a0);
    800021f0:	00050513          	mv	a0,a0
    riscv_csrw_sepc(sepc + 4);
    800021f4:	fe043783          	ld	a5,-32(s0)
    800021f8:	00478793          	addi	a5,a5,4
GENERATE_CSR(sepc);
    800021fc:	14179073          	csrw	sepc,a5
};
    80002200:	02813083          	ld	ra,40(sp)
    80002204:	02013403          	ld	s0,32(sp)
    80002208:	03010113          	addi	sp,sp,48
    8000220c:	00008067          	ret

0000000080002210 <_ZN5RISCV17sys_call_mem_freeEv>:
void RISCV::sys_call_mem_free(){
    80002210:	fd010113          	addi	sp,sp,-48
    80002214:	02113423          	sd	ra,40(sp)
    80002218:	02813023          	sd	s0,32(sp)
    8000221c:	03010413          	addi	s0,sp,48
        __asm__ volatile ("ld a1, 0 * 8(fp)");
    80002220:	00043583          	ld	a1,0(s0)
        __asm__ volatile ("ld a2, 1 * 8(fp)");
    80002224:	00843603          	ld	a2,8(s0)
        __asm__ volatile ("ld a3, 2 * 8(fp)");
    80002228:	01043683          	ld	a3,16(s0)
        __asm__ volatile ("ld a4, 3 * 8(fp)");
    8000222c:	01843703          	ld	a4,24(s0)
        __asm__ volatile ("ld a5, 4 * 8(fp)");
    80002230:	02043783          	ld	a5,32(s0)
GENERATE_WRRD(a1);
    80002234:	00058793          	mv	a5,a1
    80002238:	fcf43c23          	sd	a5,-40(s0)
    8000223c:	fd843783          	ld	a5,-40(s0)
    uint64 volatile a1 = riscv_rd_a1();
    80002240:	fef43423          	sd	a5,-24(s0)
GENERATE_CSR(sepc);
    80002244:	141027f3          	csrr	a5,sepc
    80002248:	fcf43823          	sd	a5,-48(s0)
    8000224c:	fd043783          	ld	a5,-48(s0)
    uint64 volatile sepc = riscv_csrr_sepc();
    80002250:	fef43023          	sd	a5,-32(s0)
    uint64 return_value = (uint64) MemoryAllocator::free((void*)a1);
    80002254:	fe843503          	ld	a0,-24(s0)
    80002258:	00001097          	auipc	ra,0x1
    8000225c:	730080e7          	jalr	1840(ra) # 80003988 <_ZN15MemoryAllocator4freeEPv>
GENERATE_WRRD(a0);
    80002260:	00050513          	mv	a0,a0
    riscv_csrw_sepc(sepc + 4);
    80002264:	fe043783          	ld	a5,-32(s0)
    80002268:	00478793          	addi	a5,a5,4
GENERATE_CSR(sepc);
    8000226c:	14179073          	csrw	sepc,a5
};
    80002270:	02813083          	ld	ra,40(sp)
    80002274:	02013403          	ld	s0,32(sp)
    80002278:	03010113          	addi	sp,sp,48
    8000227c:	00008067          	ret

0000000080002280 <_ZN5RISCV22sys_call_thread_createEv>:
void RISCV::sys_call_thread_create(){
    80002280:	f9010113          	addi	sp,sp,-112
    80002284:	06113423          	sd	ra,104(sp)
    80002288:	06813023          	sd	s0,96(sp)
    8000228c:	07010413          	addi	s0,sp,112
    80002290:	141027f3          	csrr	a5,sepc
    80002294:	faf43c23          	sd	a5,-72(s0)
    80002298:	fb843783          	ld	a5,-72(s0)
    uint64 volatile sepc = riscv_csrr_sepc();
    8000229c:	fef43423          	sd	a5,-24(s0)
        __asm__ volatile ("ld a1, 0 * 8(fp)");
    800022a0:	00043583          	ld	a1,0(s0)
        __asm__ volatile ("ld a2, 1 * 8(fp)");
    800022a4:	00843603          	ld	a2,8(s0)
        __asm__ volatile ("ld a3, 2 * 8(fp)");
    800022a8:	01043683          	ld	a3,16(s0)
        __asm__ volatile ("ld a4, 3 * 8(fp)");
    800022ac:	01843703          	ld	a4,24(s0)
        __asm__ volatile ("ld a5, 4 * 8(fp)");
    800022b0:	02043783          	ld	a5,32(s0)
GENERATE_WRRD(a1);
    800022b4:	00058793          	mv	a5,a1
    800022b8:	faf43823          	sd	a5,-80(s0)
    800022bc:	fb043783          	ld	a5,-80(s0)
    thread_t* volatile handle = (thread_t*)riscv_rd_a1();
    800022c0:	fef43023          	sd	a5,-32(s0)
GENERATE_WRRD(a2);
    800022c4:	00060793          	mv	a5,a2
    800022c8:	faf43423          	sd	a5,-88(s0)
    800022cc:	fa843783          	ld	a5,-88(s0)
    TCB::Body volatile body = (TCB::Body) riscv_rd_a2();
    800022d0:	fcf43c23          	sd	a5,-40(s0)
GENERATE_WRRD(a3);
    800022d4:	00068793          	mv	a5,a3
    800022d8:	faf43023          	sd	a5,-96(s0)
    800022dc:	fa043783          	ld	a5,-96(s0)
    void* volatile args = (void*) riscv_rd_a3();
    800022e0:	fcf43823          	sd	a5,-48(s0)
GENERATE_WRRD(a6);
    800022e4:	00080793          	mv	a5,a6
    800022e8:	f8f43c23          	sd	a5,-104(s0)
    800022ec:	f9843783          	ld	a5,-104(s0)
    uint64* volatile stack_space = ( uint64*) riscv_rd_a6();;
    800022f0:	fcf43423          	sd	a5,-56(s0)
GENERATE_WRRD(a7);
    800022f4:	00088793          	mv	a5,a7
    800022f8:	f8f43823          	sd	a5,-112(s0)
    800022fc:	f9043783          	ld	a5,-112(s0)
    uint64* volatile kernel_stack_space =( uint64*) riscv_rd_a7();;
    80002300:	fcf43023          	sd	a5,-64(s0)
    TCB* tcb = TCB::createThread(body, stack_space, kernel_stack_space, args);
    80002304:	fd843503          	ld	a0,-40(s0)
    80002308:	fc843583          	ld	a1,-56(s0)
    8000230c:	fc043603          	ld	a2,-64(s0)
    80002310:	fd043683          	ld	a3,-48(s0)
    80002314:	00100713          	li	a4,1
    80002318:	00001097          	auipc	ra,0x1
    8000231c:	a50080e7          	jalr	-1456(ra) # 80002d68 <_ZN3TCB12createThreadEPFvPvEPmS3_S0_b>
    if(tcb != nullptr){
    80002320:	02050863          	beqz	a0,80002350 <_ZN5RISCV22sys_call_thread_createEv+0xd0>
        __asm__ volatile ("sd %[src], (%[dest])" :: [src] "r" (tcb), [dest] "r" (handle));
    80002324:	fe043783          	ld	a5,-32(s0)
    80002328:	00a7b023          	sd	a0,0(a5)
GENERATE_WRRD(a0);
    8000232c:	00100793          	li	a5,1
    80002330:	00078513          	mv	a0,a5
    riscv_csrw_sepc(sepc + 4);
    80002334:	fe843783          	ld	a5,-24(s0)
    80002338:	00478793          	addi	a5,a5,4
GENERATE_CSR(sepc);
    8000233c:	14179073          	csrw	sepc,a5
};
    80002340:	06813083          	ld	ra,104(sp)
    80002344:	06013403          	ld	s0,96(sp)
    80002348:	07010113          	addi	sp,sp,112
    8000234c:	00008067          	ret
GENERATE_WRRD(a0);
    80002350:	00000793          	li	a5,0
    80002354:	00078513          	mv	a0,a5
    80002358:	fddff06f          	j	80002334 <_ZN5RISCV22sys_call_thread_createEv+0xb4>

000000008000235c <_ZN5RISCV24sys_call_thread_dispatchEv>:
void RISCV::sys_call_thread_dispatch(){
    8000235c:	fd010113          	addi	sp,sp,-48
    80002360:	02113423          	sd	ra,40(sp)
    80002364:	02813023          	sd	s0,32(sp)
    80002368:	03010413          	addi	s0,sp,48
        __asm__ volatile ("ld a1, 0 * 8(fp)");
    8000236c:	00043583          	ld	a1,0(s0)
        __asm__ volatile ("ld a2, 1 * 8(fp)");
    80002370:	00843603          	ld	a2,8(s0)
        __asm__ volatile ("ld a3, 2 * 8(fp)");
    80002374:	01043683          	ld	a3,16(s0)
        __asm__ volatile ("ld a4, 3 * 8(fp)");
    80002378:	01843703          	ld	a4,24(s0)
        __asm__ volatile ("ld a5, 4 * 8(fp)");
    8000237c:	02043783          	ld	a5,32(s0)
    __asm__ volatile ("csrr %[sepc], sepc" : [sepc] "=r"(sepc));
    80002380:	141027f3          	csrr	a5,sepc
    80002384:	fcf43c23          	sd	a5,-40(s0)
    return sepc;
    80002388:	fd843783          	ld	a5,-40(s0)
    uint64 volatile sepc = r_sepc() + 4;
    8000238c:	00478793          	addi	a5,a5,4
    80002390:	fef43423          	sd	a5,-24(s0)
GENERATE_CSR(sstatus);
    80002394:	100027f3          	csrr	a5,sstatus
    80002398:	fcf43823          	sd	a5,-48(s0)
    8000239c:	fd043783          	ld	a5,-48(s0)
    uint64 volatile sstatus = riscv_csrr_sstatus();
    800023a0:	fef43023          	sd	a5,-32(s0)
    TCB::timeSliceCounter = 0;
    800023a4:	0000b797          	auipc	a5,0xb
    800023a8:	86c7b783          	ld	a5,-1940(a5) # 8000cc10 <_GLOBAL_OFFSET_TABLE_+0x20>
    800023ac:	0007b023          	sd	zero,0(a5)
    TCB::dispatch();
    800023b0:	00000593          	li	a1,0
    800023b4:	00100513          	li	a0,1
    800023b8:	00001097          	auipc	ra,0x1
    800023bc:	b1c080e7          	jalr	-1252(ra) # 80002ed4 <_ZN3TCB8dispatchEbP4_sem>
    riscv_csrw_sstatus(sstatus);
    800023c0:	fe043783          	ld	a5,-32(s0)
    800023c4:	10079073          	csrw	sstatus,a5
    riscv_csrw_sepc(sepc);
    800023c8:	fe843783          	ld	a5,-24(s0)
GENERATE_CSR(sepc);
    800023cc:	14179073          	csrw	sepc,a5
}
    800023d0:	02813083          	ld	ra,40(sp)
    800023d4:	02013403          	ld	s0,32(sp)
    800023d8:	03010113          	addi	sp,sp,48
    800023dc:	00008067          	ret

00000000800023e0 <_ZN5RISCV20sys_call_thread_exitEv>:
void RISCV::sys_call_thread_exit(){
    800023e0:	ff010113          	addi	sp,sp,-16
    800023e4:	00113423          	sd	ra,8(sp)
    800023e8:	00813023          	sd	s0,0(sp)
    800023ec:	01010413          	addi	s0,sp,16
        __asm__ volatile ("ld a1, 0 * 8(fp)");
    800023f0:	00043583          	ld	a1,0(s0)
        __asm__ volatile ("ld a2, 1 * 8(fp)");
    800023f4:	00843603          	ld	a2,8(s0)
        __asm__ volatile ("ld a3, 2 * 8(fp)");
    800023f8:	01043683          	ld	a3,16(s0)
        __asm__ volatile ("ld a4, 3 * 8(fp)");
    800023fc:	01843703          	ld	a4,24(s0)
        __asm__ volatile ("ld a5, 4 * 8(fp)");
    80002400:	02043783          	ld	a5,32(s0)
    TCB* running = TCB::running;
    80002404:	0000b797          	auipc	a5,0xb
    80002408:	83c7b783          	ld	a5,-1988(a5) # 8000cc40 <_GLOBAL_OFFSET_TABLE_+0x50>
    8000240c:	0007b783          	ld	a5,0(a5)
        finished = value;
    80002410:	00100713          	li	a4,1
    80002414:	02e78c23          	sb	a4,56(a5)
    RISCV::sys_call_thread_dispatch();
    80002418:	00000097          	auipc	ra,0x0
    8000241c:	f44080e7          	jalr	-188(ra) # 8000235c <_ZN5RISCV24sys_call_thread_dispatchEv>
};
    80002420:	00813083          	ld	ra,8(sp)
    80002424:	00013403          	ld	s0,0(sp)
    80002428:	01010113          	addi	sp,sp,16
    8000242c:	00008067          	ret

0000000080002430 <_ZN5RISCV20sys_call_thread_joinEv>:
void RISCV::sys_call_thread_join(){
    80002430:	fc010113          	addi	sp,sp,-64
    80002434:	02113c23          	sd	ra,56(sp)
    80002438:	02813823          	sd	s0,48(sp)
    8000243c:	04010413          	addi	s0,sp,64
        __asm__ volatile ("ld a1, 0 * 8(fp)");
    80002440:	00043583          	ld	a1,0(s0)
        __asm__ volatile ("ld a2, 1 * 8(fp)");
    80002444:	00843603          	ld	a2,8(s0)
        __asm__ volatile ("ld a3, 2 * 8(fp)");
    80002448:	01043683          	ld	a3,16(s0)
        __asm__ volatile ("ld a4, 3 * 8(fp)");
    8000244c:	01843703          	ld	a4,24(s0)
        __asm__ volatile ("ld a5, 4 * 8(fp)");
    80002450:	02043783          	ld	a5,32(s0)
    __asm__ volatile ("csrr %[sepc], sepc" : [sepc] "=r"(sepc));
    80002454:	141027f3          	csrr	a5,sepc
    80002458:	fcf43c23          	sd	a5,-40(s0)
    return sepc;
    8000245c:	fd843783          	ld	a5,-40(s0)
    uint64 volatile sepc = r_sepc() + 4;
    80002460:	00478793          	addi	a5,a5,4
    80002464:	fef43423          	sd	a5,-24(s0)
GENERATE_CSR(sstatus);
    80002468:	100027f3          	csrr	a5,sstatus
    8000246c:	fcf43823          	sd	a5,-48(s0)
    80002470:	fd043783          	ld	a5,-48(s0)
    uint64 volatile sstatus = riscv_csrr_sstatus();
    80002474:	fef43023          	sd	a5,-32(s0)
GENERATE_WRRD(a1);
    80002478:	00058793          	mv	a5,a1
    8000247c:	fcf43423          	sd	a5,-56(s0)
    80002480:	fc843503          	ld	a0,-56(s0)
    other->putAwaiting(TCB::running);
    80002484:	0000a797          	auipc	a5,0xa
    80002488:	7bc7b783          	ld	a5,1980(a5) # 8000cc40 <_GLOBAL_OFFSET_TABLE_+0x50>
    8000248c:	0007b583          	ld	a1,0(a5)
    80002490:	00001097          	auipc	ra,0x1
    80002494:	b38080e7          	jalr	-1224(ra) # 80002fc8 <_ZN3TCB11putAwaitingEPS_>
    TCB::timeSliceCounter = 0;
    80002498:	0000a797          	auipc	a5,0xa
    8000249c:	7787b783          	ld	a5,1912(a5) # 8000cc10 <_GLOBAL_OFFSET_TABLE_+0x20>
    800024a0:	0007b023          	sd	zero,0(a5)
    TCB::dispatch(false);
    800024a4:	00000593          	li	a1,0
    800024a8:	00000513          	li	a0,0
    800024ac:	00001097          	auipc	ra,0x1
    800024b0:	a28080e7          	jalr	-1496(ra) # 80002ed4 <_ZN3TCB8dispatchEbP4_sem>
    riscv_csrw_sstatus(sstatus);
    800024b4:	fe043783          	ld	a5,-32(s0)
GENERATE_CSR(sstatus);
    800024b8:	10079073          	csrw	sstatus,a5
    riscv_csrw_sepc(sepc);
    800024bc:	fe843783          	ld	a5,-24(s0)
GENERATE_CSR(sepc);
    800024c0:	14179073          	csrw	sepc,a5
};
    800024c4:	03813083          	ld	ra,56(sp)
    800024c8:	03013403          	ld	s0,48(sp)
    800024cc:	04010113          	addi	sp,sp,64
    800024d0:	00008067          	ret

00000000800024d4 <_ZN5RISCV17sys_call_sem_openEv>:
void RISCV::sys_call_sem_open(){
    800024d4:	fb010113          	addi	sp,sp,-80
    800024d8:	04113423          	sd	ra,72(sp)
    800024dc:	04813023          	sd	s0,64(sp)
    800024e0:	02913c23          	sd	s1,56(sp)
    800024e4:	03213823          	sd	s2,48(sp)
    800024e8:	05010413          	addi	s0,sp,80
        __asm__ volatile ("ld a1, 0 * 8(fp)");
    800024ec:	00043583          	ld	a1,0(s0)
        __asm__ volatile ("ld a2, 1 * 8(fp)");
    800024f0:	00843603          	ld	a2,8(s0)
        __asm__ volatile ("ld a3, 2 * 8(fp)");
    800024f4:	01043683          	ld	a3,16(s0)
        __asm__ volatile ("ld a4, 3 * 8(fp)");
    800024f8:	01843703          	ld	a4,24(s0)
        __asm__ volatile ("ld a5, 4 * 8(fp)");
    800024fc:	02043783          	ld	a5,32(s0)
    __asm__ volatile ("csrr %[sepc], sepc" : [sepc] "=r"(sepc));
    80002500:	141027f3          	csrr	a5,sepc
    80002504:	fcf43423          	sd	a5,-56(s0)
    return sepc;
    80002508:	fc843783          	ld	a5,-56(s0)
    uint64 volatile sepc = r_sepc() + 4;
    8000250c:	00478793          	addi	a5,a5,4
    80002510:	fcf43c23          	sd	a5,-40(s0)
GENERATE_CSR(sstatus);
    80002514:	100027f3          	csrr	a5,sstatus
    80002518:	fcf43023          	sd	a5,-64(s0)
    8000251c:	fc043783          	ld	a5,-64(s0)
    uint64 volatile sstatus = riscv_csrr_sstatus();
    80002520:	fcf43823          	sd	a5,-48(s0)
GENERATE_WRRD(a1);
    80002524:	00058793          	mv	a5,a1
    80002528:	faf43c23          	sd	a5,-72(s0)
    8000252c:	fb843903          	ld	s2,-72(s0)
GENERATE_WRRD(a2);
    80002530:	00060793          	mv	a5,a2
    80002534:	faf43823          	sd	a5,-80(s0)
    80002538:	fb043483          	ld	s1,-80(s0)
    sem_t sem = new _sem(init);
    8000253c:	02000513          	li	a0,32
    80002540:	00001097          	auipc	ra,0x1
    80002544:	094080e7          	jalr	148(ra) # 800035d4 <_ZN4_semnwEm>
    80002548:	03049493          	slli	s1,s1,0x30
    8000254c:	0304d493          	srli	s1,s1,0x30
    80002550:	00952023          	sw	s1,0(a0)
    80002554:	00053423          	sd	zero,8(a0)
    80002558:	00053823          	sd	zero,16(a0)
    8000255c:	00053c23          	sd	zero,24(a0)
    if(!sem){
    80002560:	02050c63          	beqz	a0,80002598 <_ZN5RISCV17sys_call_sem_openEv+0xc4>
        *(handle) = sem;
    80002564:	00a93023          	sd	a0,0(s2)
GENERATE_WRRD(a0);
    80002568:	00000793          	li	a5,0
    8000256c:	00078513          	mv	a0,a5
    riscv_csrw_sstatus(sstatus);
    80002570:	fd043783          	ld	a5,-48(s0)
GENERATE_CSR(sstatus);
    80002574:	10079073          	csrw	sstatus,a5
    riscv_csrw_sepc(sepc);
    80002578:	fd843783          	ld	a5,-40(s0)
GENERATE_CSR(sepc);
    8000257c:	14179073          	csrw	sepc,a5
}
    80002580:	04813083          	ld	ra,72(sp)
    80002584:	04013403          	ld	s0,64(sp)
    80002588:	03813483          	ld	s1,56(sp)
    8000258c:	03013903          	ld	s2,48(sp)
    80002590:	05010113          	addi	sp,sp,80
    80002594:	00008067          	ret
GENERATE_WRRD(a0);
    80002598:	fff00793          	li	a5,-1
    8000259c:	00078513          	mv	a0,a5
    800025a0:	fd1ff06f          	j	80002570 <_ZN5RISCV17sys_call_sem_openEv+0x9c>

00000000800025a4 <_ZN5RISCV18sys_call_sem_closeEv>:
void RISCV::sys_call_sem_close(){
    800025a4:	fb010113          	addi	sp,sp,-80
    800025a8:	04113423          	sd	ra,72(sp)
    800025ac:	04813023          	sd	s0,64(sp)
    800025b0:	02913c23          	sd	s1,56(sp)
    800025b4:	05010413          	addi	s0,sp,80
        __asm__ volatile ("ld a1, 0 * 8(fp)");
    800025b8:	00043583          	ld	a1,0(s0)
        __asm__ volatile ("ld a2, 1 * 8(fp)");
    800025bc:	00843603          	ld	a2,8(s0)
        __asm__ volatile ("ld a3, 2 * 8(fp)");
    800025c0:	01043683          	ld	a3,16(s0)
        __asm__ volatile ("ld a4, 3 * 8(fp)");
    800025c4:	01843703          	ld	a4,24(s0)
        __asm__ volatile ("ld a5, 4 * 8(fp)");
    800025c8:	02043783          	ld	a5,32(s0)
    __asm__ volatile ("csrr %[sepc], sepc" : [sepc] "=r"(sepc));
    800025cc:	141027f3          	csrr	a5,sepc
    800025d0:	fcf43423          	sd	a5,-56(s0)
    return sepc;
    800025d4:	fc843783          	ld	a5,-56(s0)
    uint64 volatile sepc = r_sepc() + 4;
    800025d8:	00478793          	addi	a5,a5,4
    800025dc:	fcf43c23          	sd	a5,-40(s0)
GENERATE_CSR(sstatus);
    800025e0:	100027f3          	csrr	a5,sstatus
    800025e4:	fcf43023          	sd	a5,-64(s0)
    800025e8:	fc043783          	ld	a5,-64(s0)
    uint64 volatile sstatus = riscv_csrr_sstatus();
    800025ec:	fcf43823          	sd	a5,-48(s0)
GENERATE_WRRD(a1);
    800025f0:	00058793          	mv	a5,a1
    800025f4:	faf43c23          	sd	a5,-72(s0)
    800025f8:	fb843483          	ld	s1,-72(s0)
    if(!id){
    800025fc:	02049863          	bnez	s1,8000262c <_ZN5RISCV18sys_call_sem_closeEv+0x88>
GENERATE_WRRD(a0);
    80002600:	fff00793          	li	a5,-1
    80002604:	00078513          	mv	a0,a5
    riscv_csrw_sstatus(sstatus);
    80002608:	fd043783          	ld	a5,-48(s0)
GENERATE_CSR(sstatus);
    8000260c:	10079073          	csrw	sstatus,a5
    riscv_csrw_sepc(sepc);
    80002610:	fd843783          	ld	a5,-40(s0)
GENERATE_CSR(sepc);
    80002614:	14179073          	csrw	sepc,a5
}
    80002618:	04813083          	ld	ra,72(sp)
    8000261c:	04013403          	ld	s0,64(sp)
    80002620:	03813483          	ld	s1,56(sp)
    80002624:	05010113          	addi	sp,sp,80
    80002628:	00008067          	ret
        delete id;
    8000262c:	00048513          	mv	a0,s1
    80002630:	00001097          	auipc	ra,0x1
    80002634:	010080e7          	jalr	16(ra) # 80003640 <_ZN4_semD1Ev>
    80002638:	00048513          	mv	a0,s1
    8000263c:	00001097          	auipc	ra,0x1
    80002640:	fdc080e7          	jalr	-36(ra) # 80003618 <_ZN4_semdlEPv>
GENERATE_WRRD(a0);
    80002644:	00100793          	li	a5,1
    80002648:	00078513          	mv	a0,a5
    8000264c:	fbdff06f          	j	80002608 <_ZN5RISCV18sys_call_sem_closeEv+0x64>

0000000080002650 <_ZN5RISCV17sys_call_sem_waitEv>:
void RISCV::sys_call_sem_wait(){
    80002650:	fc010113          	addi	sp,sp,-64
    80002654:	02113c23          	sd	ra,56(sp)
    80002658:	02813823          	sd	s0,48(sp)
    8000265c:	04010413          	addi	s0,sp,64
        __asm__ volatile ("ld a1, 0 * 8(fp)");
    80002660:	00043583          	ld	a1,0(s0)
        __asm__ volatile ("ld a2, 1 * 8(fp)");
    80002664:	00843603          	ld	a2,8(s0)
        __asm__ volatile ("ld a3, 2 * 8(fp)");
    80002668:	01043683          	ld	a3,16(s0)
        __asm__ volatile ("ld a4, 3 * 8(fp)");
    8000266c:	01843703          	ld	a4,24(s0)
        __asm__ volatile ("ld a5, 4 * 8(fp)");
    80002670:	02043783          	ld	a5,32(s0)
    __asm__ volatile ("csrr %[sepc], sepc" : [sepc] "=r"(sepc));
    80002674:	141027f3          	csrr	a5,sepc
    80002678:	fcf43c23          	sd	a5,-40(s0)
    return sepc;
    8000267c:	fd843783          	ld	a5,-40(s0)
    uint64 volatile sepc = r_sepc() + 4;
    80002680:	00478793          	addi	a5,a5,4
    80002684:	fef43423          	sd	a5,-24(s0)
GENERATE_CSR(sstatus);
    80002688:	100027f3          	csrr	a5,sstatus
    8000268c:	fcf43823          	sd	a5,-48(s0)
    80002690:	fd043783          	ld	a5,-48(s0)
    uint64 volatile sstatus = riscv_csrr_sstatus();
    80002694:	fef43023          	sd	a5,-32(s0)
GENERATE_WRRD(a1);
    80002698:	00058793          	mv	a5,a1
    8000269c:	fcf43423          	sd	a5,-56(s0)
    800026a0:	fc843503          	ld	a0,-56(s0)
    uint64 code = handle->wait();
    800026a4:	00001097          	auipc	ra,0x1
    800026a8:	dc8080e7          	jalr	-568(ra) # 8000346c <_ZN4_sem4waitEv>
GENERATE_WRRD(a0);
    800026ac:	00050513          	mv	a0,a0
    riscv_csrw_sstatus(sstatus);
    800026b0:	fe043783          	ld	a5,-32(s0)
GENERATE_CSR(sstatus);
    800026b4:	10079073          	csrw	sstatus,a5
    riscv_csrw_sepc(sepc);
    800026b8:	fe843783          	ld	a5,-24(s0)
GENERATE_CSR(sepc);
    800026bc:	14179073          	csrw	sepc,a5
};
    800026c0:	03813083          	ld	ra,56(sp)
    800026c4:	03013403          	ld	s0,48(sp)
    800026c8:	04010113          	addi	sp,sp,64
    800026cc:	00008067          	ret

00000000800026d0 <_ZN5RISCV19sys_call_sem_signalEv>:
void RISCV::sys_call_sem_signal() {
    800026d0:	fc010113          	addi	sp,sp,-64
    800026d4:	02113c23          	sd	ra,56(sp)
    800026d8:	02813823          	sd	s0,48(sp)
    800026dc:	04010413          	addi	s0,sp,64
        __asm__ volatile ("ld a1, 0 * 8(fp)");
    800026e0:	00043583          	ld	a1,0(s0)
        __asm__ volatile ("ld a2, 1 * 8(fp)");
    800026e4:	00843603          	ld	a2,8(s0)
        __asm__ volatile ("ld a3, 2 * 8(fp)");
    800026e8:	01043683          	ld	a3,16(s0)
        __asm__ volatile ("ld a4, 3 * 8(fp)");
    800026ec:	01843703          	ld	a4,24(s0)
        __asm__ volatile ("ld a5, 4 * 8(fp)");
    800026f0:	02043783          	ld	a5,32(s0)
    __asm__ volatile ("csrr %[sepc], sepc" : [sepc] "=r"(sepc));
    800026f4:	141027f3          	csrr	a5,sepc
    800026f8:	fcf43c23          	sd	a5,-40(s0)
    return sepc;
    800026fc:	fd843783          	ld	a5,-40(s0)
    uint64 volatile sepc = r_sepc() + 4;
    80002700:	00478793          	addi	a5,a5,4
    80002704:	fef43423          	sd	a5,-24(s0)
GENERATE_CSR(sstatus);
    80002708:	100027f3          	csrr	a5,sstatus
    8000270c:	fcf43823          	sd	a5,-48(s0)
    80002710:	fd043783          	ld	a5,-48(s0)
    uint64 volatile sstatus = riscv_csrr_sstatus();
    80002714:	fef43023          	sd	a5,-32(s0)
GENERATE_WRRD(a1);
    80002718:	00058793          	mv	a5,a1
    8000271c:	fcf43423          	sd	a5,-56(s0)
    80002720:	fc843503          	ld	a0,-56(s0)
    uint64 code = handle->signal();
    80002724:	00001097          	auipc	ra,0x1
    80002728:	e38080e7          	jalr	-456(ra) # 8000355c <_ZN4_sem6signalEv>
GENERATE_WRRD(a0);
    8000272c:	00050513          	mv	a0,a0
    riscv_csrw_sstatus(sstatus);
    80002730:	fe043783          	ld	a5,-32(s0)
GENERATE_CSR(sstatus);
    80002734:	10079073          	csrw	sstatus,a5
    riscv_csrw_sepc(sepc);
    80002738:	fe843783          	ld	a5,-24(s0)
GENERATE_CSR(sepc);
    8000273c:	14179073          	csrw	sepc,a5
}
    80002740:	03813083          	ld	ra,56(sp)
    80002744:	03013403          	ld	s0,48(sp)
    80002748:	04010113          	addi	sp,sp,64
    8000274c:	00008067          	ret

0000000080002750 <_ZN5RISCV19sys_call_time_sleepEv>:
void RISCV::sys_call_time_sleep()  {
    80002750:	fc010113          	addi	sp,sp,-64
    80002754:	02113c23          	sd	ra,56(sp)
    80002758:	02813823          	sd	s0,48(sp)
    8000275c:	04010413          	addi	s0,sp,64
        __asm__ volatile ("ld a1, 0 * 8(fp)");
    80002760:	00043583          	ld	a1,0(s0)
        __asm__ volatile ("ld a2, 1 * 8(fp)");
    80002764:	00843603          	ld	a2,8(s0)
        __asm__ volatile ("ld a3, 2 * 8(fp)");
    80002768:	01043683          	ld	a3,16(s0)
        __asm__ volatile ("ld a4, 3 * 8(fp)");
    8000276c:	01843703          	ld	a4,24(s0)
        __asm__ volatile ("ld a5, 4 * 8(fp)");
    80002770:	02043783          	ld	a5,32(s0)
    __asm__ volatile ("csrr %[sepc], sepc" : [sepc] "=r"(sepc));
    80002774:	141027f3          	csrr	a5,sepc
    80002778:	fcf43c23          	sd	a5,-40(s0)
    return sepc;
    8000277c:	fd843783          	ld	a5,-40(s0)
    uint64 volatile sepc = r_sepc() + 4;
    80002780:	00478793          	addi	a5,a5,4
    80002784:	fef43423          	sd	a5,-24(s0)
GENERATE_CSR(sstatus);
    80002788:	100027f3          	csrr	a5,sstatus
    8000278c:	fcf43823          	sd	a5,-48(s0)
    80002790:	fd043783          	ld	a5,-48(s0)
    uint64 volatile sstatus = riscv_csrr_sstatus();
    80002794:	fef43023          	sd	a5,-32(s0)
GENERATE_WRRD(a1);
    80002798:	00058793          	mv	a5,a1
    8000279c:	fcf43423          	sd	a5,-56(s0)
    800027a0:	fc843503          	ld	a0,-56(s0)
    TCB::sleep(time);
    800027a4:	00001097          	auipc	ra,0x1
    800027a8:	88c080e7          	jalr	-1908(ra) # 80003030 <_ZN3TCB5sleepEm>
    riscv_csrw_sstatus(sstatus);
    800027ac:	fe043783          	ld	a5,-32(s0)
GENERATE_CSR(sstatus);
    800027b0:	10079073          	csrw	sstatus,a5
    riscv_csrw_sepc(sepc);
    800027b4:	fe843783          	ld	a5,-24(s0)
GENERATE_CSR(sepc);
    800027b8:	14179073          	csrw	sepc,a5
}
    800027bc:	03813083          	ld	ra,56(sp)
    800027c0:	03013403          	ld	s0,48(sp)
    800027c4:	04010113          	addi	sp,sp,64
    800027c8:	00008067          	ret

00000000800027cc <_ZN5RISCV13sys_call_getcEv>:
void RISCV::sys_call_getc(){
    800027cc:	fd010113          	addi	sp,sp,-48
    800027d0:	02113423          	sd	ra,40(sp)
    800027d4:	02813023          	sd	s0,32(sp)
    800027d8:	03010413          	addi	s0,sp,48
    static void contextSwitch(Context * oldContext, Context * runningContext);

    static void dispatch(bool putInScheduler=true, _sem* lockedSem=nullptr);

    static void switchSupervisorMode(){
        TCB::running->supervisorMode= (TCB::running)->supervisorMode==0?1:0;
    800027dc:	0000a797          	auipc	a5,0xa
    800027e0:	4647b783          	ld	a5,1124(a5) # 8000cc40 <_GLOBAL_OFFSET_TABLE_+0x50>
    800027e4:	0007b783          	ld	a5,0(a5)
    800027e8:	0287b703          	ld	a4,40(a5)
    800027ec:	08071663          	bnez	a4,80002878 <_ZN5RISCV13sys_call_getcEv+0xac>
    800027f0:	00100713          	li	a4,1
    800027f4:	02e7b423          	sd	a4,40(a5)
        __asm__ volatile ("ld a1, 0 * 8(fp)");
    800027f8:	00043583          	ld	a1,0(s0)
        __asm__ volatile ("ld a2, 1 * 8(fp)");
    800027fc:	00843603          	ld	a2,8(s0)
        __asm__ volatile ("ld a3, 2 * 8(fp)");
    80002800:	01043683          	ld	a3,16(s0)
        __asm__ volatile ("ld a4, 3 * 8(fp)");
    80002804:	01843703          	ld	a4,24(s0)
        __asm__ volatile ("ld a5, 4 * 8(fp)");
    80002808:	02043783          	ld	a5,32(s0)
    __asm__ volatile ("csrr %[sepc], sepc" : [sepc] "=r"(sepc));
    8000280c:	141027f3          	csrr	a5,sepc
    80002810:	fcf43c23          	sd	a5,-40(s0)
    return sepc;
    80002814:	fd843783          	ld	a5,-40(s0)
    uint64 volatile sepc = r_sepc()+4;
    80002818:	00478793          	addi	a5,a5,4
    8000281c:	fef43423          	sd	a5,-24(s0)
GENERATE_CSR(sstatus);
    80002820:	100027f3          	csrr	a5,sstatus
    80002824:	fcf43823          	sd	a5,-48(s0)
    80002828:	fd043783          	ld	a5,-48(s0)
    uint64 volatile sstatus = riscv_csrr_sstatus();
    8000282c:	fef43023          	sd	a5,-32(s0)
    char c = __getc();
    80002830:	00007097          	auipc	ra,0x7
    80002834:	ac8080e7          	jalr	-1336(ra) # 800092f8 <__getc>
GENERATE_WRRD(a0);
    80002838:	00050513          	mv	a0,a0
    riscv_csrw_sepc(sepc);
    8000283c:	fe843783          	ld	a5,-24(s0)
GENERATE_CSR(sepc);
    80002840:	14179073          	csrw	sepc,a5
    riscv_csrw_sstatus(sstatus);
    80002844:	fe043783          	ld	a5,-32(s0)
GENERATE_CSR(sstatus);
    80002848:	10079073          	csrw	sstatus,a5
    8000284c:	0000a797          	auipc	a5,0xa
    80002850:	3f47b783          	ld	a5,1012(a5) # 8000cc40 <_GLOBAL_OFFSET_TABLE_+0x50>
    80002854:	0007b783          	ld	a5,0(a5)
    80002858:	0287b703          	ld	a4,40(a5)
    8000285c:	02071263          	bnez	a4,80002880 <_ZN5RISCV13sys_call_getcEv+0xb4>
    80002860:	00100713          	li	a4,1
    80002864:	02e7b423          	sd	a4,40(a5)
}
    80002868:	02813083          	ld	ra,40(sp)
    8000286c:	02013403          	ld	s0,32(sp)
    80002870:	03010113          	addi	sp,sp,48
    80002874:	00008067          	ret
    80002878:	00000713          	li	a4,0
    8000287c:	f79ff06f          	j	800027f4 <_ZN5RISCV13sys_call_getcEv+0x28>
    80002880:	00000713          	li	a4,0
    80002884:	fe1ff06f          	j	80002864 <_ZN5RISCV13sys_call_getcEv+0x98>

0000000080002888 <_ZN5RISCV13sys_call_putcEv>:
void RISCV::sys_call_putc(){
    80002888:	fc010113          	addi	sp,sp,-64
    8000288c:	02113c23          	sd	ra,56(sp)
    80002890:	02813823          	sd	s0,48(sp)
    80002894:	04010413          	addi	s0,sp,64
    80002898:	0000a797          	auipc	a5,0xa
    8000289c:	3a87b783          	ld	a5,936(a5) # 8000cc40 <_GLOBAL_OFFSET_TABLE_+0x50>
    800028a0:	0007b783          	ld	a5,0(a5)
    800028a4:	0287b703          	ld	a4,40(a5)
    800028a8:	08071c63          	bnez	a4,80002940 <_ZN5RISCV13sys_call_putcEv+0xb8>
    800028ac:	00100713          	li	a4,1
    800028b0:	02e7b423          	sd	a4,40(a5)
        __asm__ volatile ("ld a1, 0 * 8(fp)");
    800028b4:	00043583          	ld	a1,0(s0)
        __asm__ volatile ("ld a2, 1 * 8(fp)");
    800028b8:	00843603          	ld	a2,8(s0)
        __asm__ volatile ("ld a3, 2 * 8(fp)");
    800028bc:	01043683          	ld	a3,16(s0)
        __asm__ volatile ("ld a4, 3 * 8(fp)");
    800028c0:	01843703          	ld	a4,24(s0)
        __asm__ volatile ("ld a5, 4 * 8(fp)");
    800028c4:	02043783          	ld	a5,32(s0)
    __asm__ volatile ("csrr %[sepc], sepc" : [sepc] "=r"(sepc));
    800028c8:	141027f3          	csrr	a5,sepc
    800028cc:	fcf43c23          	sd	a5,-40(s0)
    return sepc;
    800028d0:	fd843783          	ld	a5,-40(s0)
    uint64 volatile sepc = r_sepc() + 4;
    800028d4:	00478793          	addi	a5,a5,4
    800028d8:	fef43423          	sd	a5,-24(s0)
GENERATE_CSR(sstatus);
    800028dc:	100027f3          	csrr	a5,sstatus
    800028e0:	fcf43823          	sd	a5,-48(s0)
    800028e4:	fd043783          	ld	a5,-48(s0)
    uint64 volatile sstatus = riscv_csrr_sstatus();
    800028e8:	fef43023          	sd	a5,-32(s0)
GENERATE_WRRD(a1);
    800028ec:	00058793          	mv	a5,a1
    800028f0:	fcf43423          	sd	a5,-56(s0)
    800028f4:	fc843503          	ld	a0,-56(s0)
    __putc(c);
    800028f8:	0ff57513          	andi	a0,a0,255
    800028fc:	00007097          	auipc	ra,0x7
    80002900:	9c0080e7          	jalr	-1600(ra) # 800092bc <__putc>
    riscv_csrw_sstatus(sstatus);
    80002904:	fe043783          	ld	a5,-32(s0)
GENERATE_CSR(sstatus);
    80002908:	10079073          	csrw	sstatus,a5
    riscv_csrw_sepc(sepc);
    8000290c:	fe843783          	ld	a5,-24(s0)
GENERATE_CSR(sepc);
    80002910:	14179073          	csrw	sepc,a5
    80002914:	0000a797          	auipc	a5,0xa
    80002918:	32c7b783          	ld	a5,812(a5) # 8000cc40 <_GLOBAL_OFFSET_TABLE_+0x50>
    8000291c:	0007b783          	ld	a5,0(a5)
    80002920:	0287b703          	ld	a4,40(a5)
    80002924:	02071263          	bnez	a4,80002948 <_ZN5RISCV13sys_call_putcEv+0xc0>
    80002928:	00100713          	li	a4,1
    8000292c:	02e7b423          	sd	a4,40(a5)
}
    80002930:	03813083          	ld	ra,56(sp)
    80002934:	03013403          	ld	s0,48(sp)
    80002938:	04010113          	addi	sp,sp,64
    8000293c:	00008067          	ret
    80002940:	00000713          	li	a4,0
    80002944:	f6dff06f          	j	800028b0 <_ZN5RISCV13sys_call_putcEv+0x28>
    80002948:	00000713          	li	a4,0
    8000294c:	fe1ff06f          	j	8000292c <_ZN5RISCV13sys_call_putcEv+0xa4>

0000000080002950 <_ZN5RISCV21switchToUserLevelModeEv>:
void RISCV::switchToUserLevelMode() {
    80002950:	ff010113          	addi	sp,sp,-16
    80002954:	00813423          	sd	s0,8(sp)
    80002958:	01010413          	addi	s0,sp,16
    __asm__ volatile ("mv %0, ra": "=r" (ra));
    8000295c:	00008793          	mv	a5,ra
    __asm__ volatile ("csrc sstatus, %[mask]" : : [mask] "r"(mask));
    80002960:	10000713          	li	a4,256
    80002964:	10073073          	csrc	sstatus,a4
    __asm__ volatile ("csrw sepc, %[sepc]" : : [sepc] "r"(ra));
    80002968:	14179073          	csrw	sepc,a5
    __asm__ volatile("ld s0,8(sp)");
    8000296c:	00813403          	ld	s0,8(sp)
    __asm__ volatile("addi sp,sp,16");
    80002970:	01010113          	addi	sp,sp,16
    __asm__ volatile("sret");
    80002974:	10200073          	sret
}
    80002978:	00813403          	ld	s0,8(sp)
    8000297c:	01010113          	addi	sp,sp,16
    80002980:	00008067          	ret

0000000080002984 <_ZN5RISCV10popSppSpieEv>:
{
    80002984:	ff010113          	addi	sp,sp,-16
    80002988:	00813423          	sd	s0,8(sp)
    8000298c:	01010413          	addi	s0,sp,16
    __asm__ volatile("csrw sepc, ra");
    80002990:	14109073          	csrw	sepc,ra
    __asm__ volatile("call restoreContext");
    80002994:	ffffe097          	auipc	ra,0xffffe
    80002998:	66c080e7          	jalr	1644(ra) # 80001000 <restoreContext>
}
    8000299c:	00813403          	ld	s0,8(sp)
    800029a0:	01010113          	addi	sp,sp,16
    800029a4:	00008067          	ret

00000000800029a8 <_ZN5RISCV20handleSupervisorTrapEv>:

};


void RISCV::handleSupervisorTrap()
{
    800029a8:	fb010113          	addi	sp,sp,-80
    800029ac:	04113423          	sd	ra,72(sp)
    800029b0:	04813023          	sd	s0,64(sp)
    800029b4:	02913c23          	sd	s1,56(sp)
    800029b8:	05010413          	addi	s0,sp,80
        __asm__ volatile ("addi sp, sp, -40");
    800029bc:	fd810113          	addi	sp,sp,-40
        __asm__ volatile ("sd a1, 0 * 8(sp)");
    800029c0:	00b13023          	sd	a1,0(sp)
        __asm__ volatile ("sd a2, 1 * 8(sp)");
    800029c4:	00c13423          	sd	a2,8(sp)
        __asm__ volatile ("sd a3, 2 * 8(sp)");
    800029c8:	00d13823          	sd	a3,16(sp)
        __asm__ volatile ("sd a4, 3 * 8(sp)");
    800029cc:	00e13c23          	sd	a4,24(sp)
        __asm__ volatile ("sd a5, 4 * 8(sp)");
    800029d0:	02f13023          	sd	a5,32(sp)
GENERATE_CSR(scause);
    800029d4:	142027f3          	csrr	a5,scause
    800029d8:	fcf43423          	sd	a5,-56(s0)
    800029dc:	fc843483          	ld	s1,-56(s0)
    saveArguments();

    uint64 scause = riscv_csrr_scause();

    switch(scause){
    800029e0:	00900793          	li	a5,9
    800029e4:	0497e663          	bltu	a5,s1,80002a30 <_ZN5RISCV20handleSupervisorTrapEv+0x88>
    800029e8:	00800793          	li	a5,8
    800029ec:	06f4f463          	bgeu	s1,a5,80002a54 <_ZN5RISCV20handleSupervisorTrapEv+0xac>
    800029f0:	00500793          	li	a5,5
    800029f4:	0af48463          	beq	s1,a5,80002a9c <_ZN5RISCV20handleSupervisorTrapEv+0xf4>
    800029f8:	00700793          	li	a5,7
    800029fc:	0af48063          	beq	s1,a5,80002a9c <_ZN5RISCV20handleSupervisorTrapEv+0xf4>
    80002a00:	00200793          	li	a5,2
    80002a04:	0af49663          	bne	s1,a5,80002ab0 <_ZN5RISCV20handleSupervisorTrapEv+0x108>
        case RISCV_SCAUSE_ILLEGAL_INSTRUCTION: {
            printString("Illegal Instruction\n");
    80002a08:	00007517          	auipc	a0,0x7
    80002a0c:	61850513          	addi	a0,a0,1560 # 8000a020 <CONSOLE_STATUS+0x10>
    80002a10:	00003097          	auipc	ra,0x3
    80002a14:	5a0080e7          	jalr	1440(ra) # 80005fb0 <_Z11printStringPKc>
            printInt(scause);
            printString("-------------------------\n");
            break;
        }
    };
    __asm__ volatile ("addi sp, sp, 40");
    80002a18:	02810113          	addi	sp,sp,40
}
    80002a1c:	04813083          	ld	ra,72(sp)
    80002a20:	04013403          	ld	s0,64(sp)
    80002a24:	03813483          	ld	s1,56(sp)
    80002a28:	05010113          	addi	sp,sp,80
    80002a2c:	00008067          	ret
    switch(scause){
    80002a30:	fff00793          	li	a5,-1
    80002a34:	03f79793          	slli	a5,a5,0x3f
    80002a38:	00978793          	addi	a5,a5,9
    80002a3c:	06f49a63          	bne	s1,a5,80002ab0 <_ZN5RISCV20handleSupervisorTrapEv+0x108>
            printString("Should not happen in this routine.\n");
    80002a40:	00007517          	auipc	a0,0x7
    80002a44:	5f850513          	addi	a0,a0,1528 # 8000a038 <CONSOLE_STATUS+0x28>
    80002a48:	00003097          	auipc	ra,0x3
    80002a4c:	568080e7          	jalr	1384(ra) # 80005fb0 <_Z11printStringPKc>
            break;
    80002a50:	fc9ff06f          	j	80002a18 <_ZN5RISCV20handleSupervisorTrapEv+0x70>
GENERATE_WRRD(a0);
    80002a54:	00050793          	mv	a5,a0
    80002a58:	fcf43c23          	sd	a5,-40(s0)
    80002a5c:	fd843783          	ld	a5,-40(s0)
            uint64 volatile syscall_code =riscv_rd_a0();
    80002a60:	faf43c23          	sd	a5,-72(s0)
            pf[syscall_code]();
    80002a64:	fb843783          	ld	a5,-72(s0)
    80002a68:	00379713          	slli	a4,a5,0x3
    80002a6c:	0000a797          	auipc	a5,0xa
    80002a70:	dc478793          	addi	a5,a5,-572 # 8000c830 <_ZN5RISCV2pfE>
    80002a74:	00e787b3          	add	a5,a5,a4
    80002a78:	0007b783          	ld	a5,0(a5)
    80002a7c:	000780e7          	jalr	a5
    80002a80:	00050793          	mv	a5,a0
    80002a84:	fcf43823          	sd	a5,-48(s0)
    80002a88:	fd043783          	ld	a5,-48(s0)
            uint64 volatile a0 = riscv_rd_a0();
    80002a8c:	fcf43023          	sd	a5,-64(s0)
            __asm__ volatile ("sd %0, 10*8(fp)" : : "r"(a0));
    80002a90:	fc043783          	ld	a5,-64(s0)
    80002a94:	04f43823          	sd	a5,80(s0)
            break;
    80002a98:	f81ff06f          	j	80002a18 <_ZN5RISCV20handleSupervisorTrapEv+0x70>
            printString("Illegal Memmory\n");
    80002a9c:	00007517          	auipc	a0,0x7
    80002aa0:	5c450513          	addi	a0,a0,1476 # 8000a060 <CONSOLE_STATUS+0x50>
    80002aa4:	00003097          	auipc	ra,0x3
    80002aa8:	50c080e7          	jalr	1292(ra) # 80005fb0 <_Z11printStringPKc>
            break;
    80002aac:	f6dff06f          	j	80002a18 <_ZN5RISCV20handleSupervisorTrapEv+0x70>
            printString("-------------------------\n");
    80002ab0:	00007517          	auipc	a0,0x7
    80002ab4:	5c850513          	addi	a0,a0,1480 # 8000a078 <CONSOLE_STATUS+0x68>
    80002ab8:	00003097          	auipc	ra,0x3
    80002abc:	4f8080e7          	jalr	1272(ra) # 80005fb0 <_Z11printStringPKc>
            printString("FATAL ERROR\n");
    80002ac0:	00007517          	auipc	a0,0x7
    80002ac4:	5d850513          	addi	a0,a0,1496 # 8000a098 <CONSOLE_STATUS+0x88>
    80002ac8:	00003097          	auipc	ra,0x3
    80002acc:	4e8080e7          	jalr	1256(ra) # 80005fb0 <_Z11printStringPKc>
            printString("Scause=");
    80002ad0:	00007517          	auipc	a0,0x7
    80002ad4:	5d850513          	addi	a0,a0,1496 # 8000a0a8 <CONSOLE_STATUS+0x98>
    80002ad8:	00003097          	auipc	ra,0x3
    80002adc:	4d8080e7          	jalr	1240(ra) # 80005fb0 <_Z11printStringPKc>
            printInt(scause);
    80002ae0:	00000613          	li	a2,0
    80002ae4:	00a00593          	li	a1,10
    80002ae8:	0004851b          	sext.w	a0,s1
    80002aec:	00003097          	auipc	ra,0x3
    80002af0:	674080e7          	jalr	1652(ra) # 80006160 <_Z8printIntiii>
            printString("-------------------------\n");
    80002af4:	00007517          	auipc	a0,0x7
    80002af8:	58450513          	addi	a0,a0,1412 # 8000a078 <CONSOLE_STATUS+0x68>
    80002afc:	00003097          	auipc	ra,0x3
    80002b00:	4b4080e7          	jalr	1204(ra) # 80005fb0 <_Z11printStringPKc>
            break;
    80002b04:	f15ff06f          	j	80002a18 <_ZN5RISCV20handleSupervisorTrapEv+0x70>

0000000080002b08 <_ZN5RISCV33handleSupervisorSoftwareInterruptEv>:

void RISCV::handleSupervisorSoftwareInterrupt(){
    80002b08:	fb010113          	addi	sp,sp,-80
    80002b0c:	04113423          	sd	ra,72(sp)
    80002b10:	04813023          	sd	s0,64(sp)
    80002b14:	02913c23          	sd	s1,56(sp)
    80002b18:	05010413          	addi	s0,sp,80
GENERATE_CSR(scause);
    80002b1c:	142027f3          	csrr	a5,scause
    80002b20:	fcf43423          	sd	a5,-56(s0)
    80002b24:	fc843703          	ld	a4,-56(s0)
    uint64 scause = riscv_csrr_scause();

    switch(scause){
    80002b28:	fff00793          	li	a5,-1
    80002b2c:	03f79793          	slli	a5,a5,0x3f
    80002b30:	00178793          	addi	a5,a5,1
    80002b34:	00f70c63          	beq	a4,a5,80002b4c <_ZN5RISCV33handleSupervisorSoftwareInterruptEv+0x44>
        default: {

            break;
        }
    }
}
    80002b38:	04813083          	ld	ra,72(sp)
    80002b3c:	04013403          	ld	s0,64(sp)
    80002b40:	03813483          	ld	s1,56(sp)
    80002b44:	05010113          	addi	sp,sp,80
    80002b48:	00008067          	ret
GENERATE_CSR(sip);
    80002b4c:	00200793          	li	a5,2
    80002b50:	1447b073          	csrc	sip,a5
            TCB::timeSliceCounter++;
    80002b54:	0000a497          	auipc	s1,0xa
    80002b58:	0bc4b483          	ld	s1,188(s1) # 8000cc10 <_GLOBAL_OFFSET_TABLE_+0x20>
    80002b5c:	0004b783          	ld	a5,0(s1)
    80002b60:	00178793          	addi	a5,a5,1
    80002b64:	00f4b023          	sd	a5,0(s1)
            TCB::wakeThreads();
    80002b68:	00000097          	auipc	ra,0x0
    80002b6c:	5cc080e7          	jalr	1484(ra) # 80003134 <_ZN3TCB11wakeThreadsEv>
            if (TCB::timeSliceCounter >= TCB::running->getTimeSlice())
    80002b70:	0000a797          	auipc	a5,0xa
    80002b74:	0d07b783          	ld	a5,208(a5) # 8000cc40 <_GLOBAL_OFFSET_TABLE_+0x50>
    80002b78:	0007b783          	ld	a5,0(a5)
        return timeSlice;
    80002b7c:	0307b783          	ld	a5,48(a5)
    80002b80:	0004b703          	ld	a4,0(s1)
    80002b84:	faf76ae3          	bltu	a4,a5,80002b38 <_ZN5RISCV33handleSupervisorSoftwareInterruptEv+0x30>
GENERATE_CSR(sepc);
    80002b88:	141027f3          	csrr	a5,sepc
    80002b8c:	fcf43c23          	sd	a5,-40(s0)
    80002b90:	fd843783          	ld	a5,-40(s0)
                uint64 volatile sepc = riscv_csrr_sepc();
    80002b94:	faf43c23          	sd	a5,-72(s0)
GENERATE_CSR(sstatus);
    80002b98:	100027f3          	csrr	a5,sstatus
    80002b9c:	fcf43823          	sd	a5,-48(s0)
    80002ba0:	fd043783          	ld	a5,-48(s0)
                uint64 volatile sstatus = riscv_csrr_sstatus();
    80002ba4:	fcf43023          	sd	a5,-64(s0)
                TCB::timeSliceCounter = 0;
    80002ba8:	0004b023          	sd	zero,0(s1)
                TCB::dispatch();
    80002bac:	00000593          	li	a1,0
    80002bb0:	00100513          	li	a0,1
    80002bb4:	00000097          	auipc	ra,0x0
    80002bb8:	320080e7          	jalr	800(ra) # 80002ed4 <_ZN3TCB8dispatchEbP4_sem>
                riscv_csrw_sstatus(sstatus);
    80002bbc:	fc043783          	ld	a5,-64(s0)
    80002bc0:	10079073          	csrw	sstatus,a5
                riscv_csrw_sepc(sepc);
    80002bc4:	fb843783          	ld	a5,-72(s0)
GENERATE_CSR(sepc);
    80002bc8:	14179073          	csrw	sepc,a5
}
    80002bcc:	f6dff06f          	j	80002b38 <_ZN5RISCV33handleSupervisorSoftwareInterruptEv+0x30>

0000000080002bd0 <_ZN5RISCV33handleSupervisorHardwareInterruptEv>:



void RISCV::handleSupervisorHardwareInterrupt(){
    80002bd0:	ff010113          	addi	sp,sp,-16
    80002bd4:	00113423          	sd	ra,8(sp)
    80002bd8:	00813023          	sd	s0,0(sp)
    80002bdc:	01010413          	addi	s0,sp,16
    console_handler();
    80002be0:	00006097          	auipc	ra,0x6
    80002be4:	750080e7          	jalr	1872(ra) # 80009330 <console_handler>
            char c = (*(char*)CONSOLE_RX_DATA);
            inputBuffer->send(c);
        }
    }
    plic_complete(claim);*/
}
    80002be8:	00813083          	ld	ra,8(sp)
    80002bec:	00013403          	ld	s0,0(sp)
    80002bf0:	01010113          	addi	sp,sp,16
    80002bf4:	00008067          	ret

0000000080002bf8 <_Z41__static_initialization_and_destruction_0ii>:
        while((*((char*)(CONSOLE_STATUS)) & CONSOLE_TX_STATUS_BIT)){
            char c = outputBuffer->receiveSys();
            *((char*)CONSOLE_TX_DATA) = c;
        }
    }
}
    80002bf8:	ff010113          	addi	sp,sp,-16
    80002bfc:	00813423          	sd	s0,8(sp)
    80002c00:	01010413          	addi	s0,sp,16
    80002c04:	00100793          	li	a5,1
    80002c08:	00f50863          	beq	a0,a5,80002c18 <_Z41__static_initialization_and_destruction_0ii+0x20>
    80002c0c:	00813403          	ld	s0,8(sp)
    80002c10:	01010113          	addi	sp,sp,16
    80002c14:	00008067          	ret
    80002c18:	000107b7          	lui	a5,0x10
    80002c1c:	fff78793          	addi	a5,a5,-1 # ffff <_entry-0x7fff0001>
    80002c20:	fef596e3          	bne	a1,a5,80002c0c <_Z41__static_initialization_and_destruction_0ii+0x14>
    80002c24:	0000a797          	auipc	a5,0xa
    80002c28:	0cc78793          	addi	a5,a5,204 # 8000ccf0 <_ZN3TCB15sleepingThreadsE>
    80002c2c:	0007b023          	sd	zero,0(a5)
    80002c30:	0007b423          	sd	zero,8(a5)
    80002c34:	fd9ff06f          	j	80002c0c <_Z41__static_initialization_and_destruction_0ii+0x14>

0000000080002c38 <_ZN3TCBnwEmPv>:
void*::TCB::operator new(size_t size, void *memory) {
    80002c38:	ff010113          	addi	sp,sp,-16
    80002c3c:	00813423          	sd	s0,8(sp)
    80002c40:	01010413          	addi	s0,sp,16
}
    80002c44:	00058513          	mv	a0,a1
    80002c48:	00813403          	ld	s0,8(sp)
    80002c4c:	01010113          	addi	sp,sp,16
    80002c50:	00008067          	ret

0000000080002c54 <_ZN3TCBdlEPv>:
void TCB::operator delete(void *ptr) {
    80002c54:	ff010113          	addi	sp,sp,-16
    80002c58:	00113423          	sd	ra,8(sp)
    80002c5c:	00813023          	sd	s0,0(sp)
    80002c60:	01010413          	addi	s0,sp,16
    MemoryAllocator::free(ptr);
    80002c64:	00001097          	auipc	ra,0x1
    80002c68:	d24080e7          	jalr	-732(ra) # 80003988 <_ZN15MemoryAllocator4freeEPv>
}
    80002c6c:	00813083          	ld	ra,8(sp)
    80002c70:	00013403          	ld	s0,0(sp)
    80002c74:	01010113          	addi	sp,sp,16
    80002c78:	00008067          	ret

0000000080002c7c <_ZN3TCBC1EPFvPvES0_PmS3_mb>:
    80002c7c:	04053423          	sd	zero,72(a0)
    80002c80:	04053823          	sd	zero,80(a0)
TCB::TCB(Body body, void* args, uint64* stack_space, uint64* kernel_stack_space, uint64 timeSlice, bool putInScheduler) {
    80002c84:	04050ca3          	sb	zero,89(a0)
    this -> body = body;
    80002c88:	00b53023          	sd	a1,0(a0)
    this -> args = args;
    80002c8c:	02c53023          	sd	a2,32(a0)
    this -> stack = stack_space;
    80002c90:	00d53423          	sd	a3,8(a0)
    this -> timeSlice = timeSlice;
    80002c94:	02f53823          	sd	a5,48(a0)
    this -> finished = false;
    80002c98:	02050c23          	sb	zero,56(a0)
    this -> semaphoreDestroyed = false;
    80002c9c:	04050c23          	sb	zero,88(a0)
    this -> scheduled = putInScheduler;
    80002ca0:	05050d23          	sb	a6,90(a0)
    this -> supervisorMode = 0;
    80002ca4:	02053423          	sd	zero,40(a0)
    kernelStack = kernel_stack_space;
    80002ca8:	00e53823          	sd	a4,16(a0)
            (uint64) & kernelStack[KERNEL_STACK_SIZE]
    80002cac:	000027b7          	lui	a5,0x2
    80002cb0:	00f70733          	add	a4,a4,a5
    context.kernelStackPointer -= 256;
    80002cb4:	f0070793          	addi	a5,a4,-256
    80002cb8:	00f53c23          	sd	a5,24(a0)
    *((uint64 * )(context.kernelStackPointer + 8)) = (uint64) & threadWrapper; //ra
    80002cbc:	00000797          	auipc	a5,0x0
    80002cc0:	17878793          	addi	a5,a5,376 # 80002e34 <_ZN3TCB13threadWrapperEv>
    80002cc4:	f0f73423          	sd	a5,-248(a4)
    *((uint64 * )(context.kernelStackPointer + 16)) = (stack != nullptr) ? (uint64) & stack[DEFAULT_STACK_SIZE]: 0; //sp
    80002cc8:	00853783          	ld	a5,8(a0)
    80002ccc:	02078063          	beqz	a5,80002cec <_ZN3TCBC1EPFvPvES0_PmS3_mb+0x70>
    80002cd0:	00008737          	lui	a4,0x8
    80002cd4:	00e787b3          	add	a5,a5,a4
    80002cd8:	01853703          	ld	a4,24(a0)
    80002cdc:	00f73823          	sd	a5,16(a4) # 8010 <_entry-0x7fff7ff0>
    if (body != nullptr && putInScheduler==true) {
    80002ce0:	00058463          	beqz	a1,80002ce8 <_ZN3TCBC1EPFvPvES0_PmS3_mb+0x6c>
    80002ce4:	00081863          	bnez	a6,80002cf4 <_ZN3TCBC1EPFvPvES0_PmS3_mb+0x78>
    80002ce8:	00008067          	ret
    *((uint64 * )(context.kernelStackPointer + 16)) = (stack != nullptr) ? (uint64) & stack[DEFAULT_STACK_SIZE]: 0; //sp
    80002cec:	00000793          	li	a5,0
    80002cf0:	fe9ff06f          	j	80002cd8 <_ZN3TCBC1EPFvPvES0_PmS3_mb+0x5c>
TCB::TCB(Body body, void* args, uint64* stack_space, uint64* kernel_stack_space, uint64 timeSlice, bool putInScheduler) {
    80002cf4:	ff010113          	addi	sp,sp,-16
    80002cf8:	00113423          	sd	ra,8(sp)
    80002cfc:	00813023          	sd	s0,0(sp)
    80002d00:	01010413          	addi	s0,sp,16
        Scheduler::put(this);
    80002d04:	fffff097          	auipc	ra,0xfffff
    80002d08:	c90080e7          	jalr	-880(ra) # 80001994 <_ZN9Scheduler3putEP3TCB>
}
    80002d0c:	00813083          	ld	ra,8(sp)
    80002d10:	00013403          	ld	s0,0(sp)
    80002d14:	01010113          	addi	sp,sp,16
    80002d18:	00008067          	ret

0000000080002d1c <_ZN3TCBD1Ev>:
TCB::~TCB() {
    80002d1c:	fe010113          	addi	sp,sp,-32
    80002d20:	00113c23          	sd	ra,24(sp)
    80002d24:	00813823          	sd	s0,16(sp)
    80002d28:	00913423          	sd	s1,8(sp)
    80002d2c:	02010413          	addi	s0,sp,32
    80002d30:	00050493          	mv	s1,a0
    delete[] stack;
    80002d34:	00853503          	ld	a0,8(a0)
    80002d38:	00050663          	beqz	a0,80002d44 <_ZN3TCBD1Ev+0x28>
    80002d3c:	fffff097          	auipc	ra,0xfffff
    80002d40:	184080e7          	jalr	388(ra) # 80001ec0 <_ZdaPv>
    delete[] kernelStack;
    80002d44:	0104b503          	ld	a0,16(s1)
    80002d48:	00050663          	beqz	a0,80002d54 <_ZN3TCBD1Ev+0x38>
    80002d4c:	fffff097          	auipc	ra,0xfffff
    80002d50:	174080e7          	jalr	372(ra) # 80001ec0 <_ZdaPv>
}
    80002d54:	01813083          	ld	ra,24(sp)
    80002d58:	01013403          	ld	s0,16(sp)
    80002d5c:	00813483          	ld	s1,8(sp)
    80002d60:	02010113          	addi	sp,sp,32
    80002d64:	00008067          	ret

0000000080002d68 <_ZN3TCB12createThreadEPFvPvEPmS3_S0_b>:
TCB * TCB::createThread(Body body, uint64* stack_space, uint64* kernel_stack_space, void* args, bool putInScheduler) {
    80002d68:	fc010113          	addi	sp,sp,-64
    80002d6c:	02113c23          	sd	ra,56(sp)
    80002d70:	02813823          	sd	s0,48(sp)
    80002d74:	02913423          	sd	s1,40(sp)
    80002d78:	03213023          	sd	s2,32(sp)
    80002d7c:	01313c23          	sd	s3,24(sp)
    80002d80:	01413823          	sd	s4,16(sp)
    80002d84:	01513423          	sd	s5,8(sp)
    80002d88:	01613023          	sd	s6,0(sp)
    80002d8c:	04010413          	addi	s0,sp,64
    80002d90:	00050913          	mv	s2,a0
    80002d94:	00058a13          	mv	s4,a1
    80002d98:	00060a93          	mv	s5,a2
    80002d9c:	00068993          	mv	s3,a3
    80002da0:	00070b13          	mv	s6,a4
     void* allocated = MemoryAllocator::malloc(size);
    80002da4:	00200513          	li	a0,2
    80002da8:	00001097          	auipc	ra,0x1
    80002dac:	af0080e7          	jalr	-1296(ra) # 80003898 <_ZN15MemoryAllocator6mallocEm>
    80002db0:	00050593          	mv	a1,a0
     return  new (allocated) TCB(body, args, stack_space,kernel_stack_space, DEFAULT_TIME_SLICE, putInScheduler);
    80002db4:	06000513          	li	a0,96
    80002db8:	00000097          	auipc	ra,0x0
    80002dbc:	e80080e7          	jalr	-384(ra) # 80002c38 <_ZN3TCBnwEmPv>
    80002dc0:	00050493          	mv	s1,a0
    80002dc4:	000b0813          	mv	a6,s6
    80002dc8:	00200793          	li	a5,2
    80002dcc:	000a8713          	mv	a4,s5
    80002dd0:	000a0693          	mv	a3,s4
    80002dd4:	00098613          	mv	a2,s3
    80002dd8:	00090593          	mv	a1,s2
    80002ddc:	00000097          	auipc	ra,0x0
    80002de0:	ea0080e7          	jalr	-352(ra) # 80002c7c <_ZN3TCBC1EPFvPvES0_PmS3_mb>
}
    80002de4:	00048513          	mv	a0,s1
    80002de8:	03813083          	ld	ra,56(sp)
    80002dec:	03013403          	ld	s0,48(sp)
    80002df0:	02813483          	ld	s1,40(sp)
    80002df4:	02013903          	ld	s2,32(sp)
    80002df8:	01813983          	ld	s3,24(sp)
    80002dfc:	01013a03          	ld	s4,16(sp)
    80002e00:	00813a83          	ld	s5,8(sp)
    80002e04:	00013b03          	ld	s6,0(sp)
    80002e08:	04010113          	addi	sp,sp,64
    80002e0c:	00008067          	ret

0000000080002e10 <_ZN3TCB5yieldEv>:
void TCB::yield() {
    80002e10:	ff010113          	addi	sp,sp,-16
    80002e14:	00813423          	sd	s0,8(sp)
    80002e18:	01010413          	addi	s0,sp,16
GENERATE_WRRD(a0);
    80002e1c:	01300793          	li	a5,19
    80002e20:	00078513          	mv	a0,a5
    __asm__ volatile("ecall");
    80002e24:	00000073          	ecall
}
    80002e28:	00813403          	ld	s0,8(sp)
    80002e2c:	01010113          	addi	sp,sp,16
    80002e30:	00008067          	ret

0000000080002e34 <_ZN3TCB13threadWrapperEv>:
void TCB::threadWrapper() {
    80002e34:	fe010113          	addi	sp,sp,-32
    80002e38:	00113c23          	sd	ra,24(sp)
    80002e3c:	00813823          	sd	s0,16(sp)
    80002e40:	00913423          	sd	s1,8(sp)
    80002e44:	02010413          	addi	s0,sp,32
    RISCV::popSppSpie();
    80002e48:	00000097          	auipc	ra,0x0
    80002e4c:	b3c080e7          	jalr	-1220(ra) # 80002984 <_ZN5RISCV10popSppSpieEv>
    running -> body(running->args);
    80002e50:	0000a497          	auipc	s1,0xa
    80002e54:	ea048493          	addi	s1,s1,-352 # 8000ccf0 <_ZN3TCB15sleepingThreadsE>
    80002e58:	0104b783          	ld	a5,16(s1)
    80002e5c:	0007b703          	ld	a4,0(a5)
    80002e60:	0207b503          	ld	a0,32(a5)
    80002e64:	000700e7          	jalr	a4
    running -> setFinished(true);
    80002e68:	0104b783          	ld	a5,16(s1)
        finished = value;
    80002e6c:	00100713          	li	a4,1
    80002e70:	02e78c23          	sb	a4,56(a5)
    }
    80002e74:	0240006f          	j	80002e98 <_ZN3TCB13threadWrapperEv+0x64>
        if (!head) { tail = 0; }
    80002e78:	0407b823          	sd	zero,80(a5)
        T *ret = elem->data;
    80002e7c:	00053483          	ld	s1,0(a0)
            MemoryAllocator::free(ptr);
    80002e80:	00001097          	auipc	ra,0x1
    80002e84:	b08080e7          	jalr	-1272(ra) # 80003988 <_ZN15MemoryAllocator4freeEPv>
        if(!temp ) break;
    80002e88:	02048863          	beqz	s1,80002eb8 <_ZN3TCB13threadWrapperEv+0x84>
        Scheduler::put(temp);
    80002e8c:	00048513          	mv	a0,s1
    80002e90:	fffff097          	auipc	ra,0xfffff
    80002e94:	b04080e7          	jalr	-1276(ra) # 80001994 <_ZN9Scheduler3putEP3TCB>
        TCB* temp  = running -> awaitingThreads.removeFirst();
    80002e98:	0000a797          	auipc	a5,0xa
    80002e9c:	e687b783          	ld	a5,-408(a5) # 8000cd00 <_ZN3TCB7runningE>
        if (!head) { return 0; }
    80002ea0:	0487b503          	ld	a0,72(a5)
    80002ea4:	00050a63          	beqz	a0,80002eb8 <_ZN3TCB13threadWrapperEv+0x84>
        head = head->next;
    80002ea8:	00853703          	ld	a4,8(a0)
    80002eac:	04e7b423          	sd	a4,72(a5)
        if (!head) { tail = 0; }
    80002eb0:	fc0716e3          	bnez	a4,80002e7c <_ZN3TCB13threadWrapperEv+0x48>
    80002eb4:	fc5ff06f          	j	80002e78 <_ZN3TCB13threadWrapperEv+0x44>
    TCB::yield();
    80002eb8:	00000097          	auipc	ra,0x0
    80002ebc:	f58080e7          	jalr	-168(ra) # 80002e10 <_ZN3TCB5yieldEv>
}
    80002ec0:	01813083          	ld	ra,24(sp)
    80002ec4:	01013403          	ld	s0,16(sp)
    80002ec8:	00813483          	ld	s1,8(sp)
    80002ecc:	02010113          	addi	sp,sp,32
    80002ed0:	00008067          	ret

0000000080002ed4 <_ZN3TCB8dispatchEbP4_sem>:
void TCB::dispatch(bool putInScheduler, _sem* lockedSem) {
    80002ed4:	fe010113          	addi	sp,sp,-32
    80002ed8:	00113c23          	sd	ra,24(sp)
    80002edc:	00813823          	sd	s0,16(sp)
    80002ee0:	00913423          	sd	s1,8(sp)
    80002ee4:	01213023          	sd	s2,0(sp)
    80002ee8:	02010413          	addi	s0,sp,32
    80002eec:	00050913          	mv	s2,a0
    if(lockedSem) lockedSem->unlock();
    80002ef0:	00058863          	beqz	a1,80002f00 <_ZN3TCB8dispatchEbP4_sem+0x2c>
    80002ef4:	00058513          	mv	a0,a1
    80002ef8:	00000097          	auipc	ra,0x0
    80002efc:	4a4080e7          	jalr	1188(ra) # 8000339c <_ZN4_sem6unlockEv>
    TCB * old = running;
    80002f00:	0000a497          	auipc	s1,0xa
    80002f04:	e004b483          	ld	s1,-512(s1) # 8000cd00 <_ZN3TCB7runningE>
        return finished;
    80002f08:	0384c783          	lbu	a5,56(s1)
    if (!old -> isFinished() && putInScheduler && old->scheduled) {
    80002f0c:	00079863          	bnez	a5,80002f1c <_ZN3TCB8dispatchEbP4_sem+0x48>
    80002f10:	00090663          	beqz	s2,80002f1c <_ZN3TCB8dispatchEbP4_sem+0x48>
    80002f14:	05a4c783          	lbu	a5,90(s1)
    80002f18:	04079063          	bnez	a5,80002f58 <_ZN3TCB8dispatchEbP4_sem+0x84>
    running = Scheduler::get();
    80002f1c:	fffff097          	auipc	ra,0xfffff
    80002f20:	a08080e7          	jalr	-1528(ra) # 80001924 <_ZN9Scheduler3getEv>
    80002f24:	0000a797          	auipc	a5,0xa
    80002f28:	dca7be23          	sd	a0,-548(a5) # 8000cd00 <_ZN3TCB7runningE>
    if(old !=running) {
    80002f2c:	00a48a63          	beq	s1,a0,80002f40 <_ZN3TCB8dispatchEbP4_sem+0x6c>
        TCB::contextSwitch(&old->context, &running->context);
    80002f30:	01850593          	addi	a1,a0,24
    80002f34:	01848513          	addi	a0,s1,24
    80002f38:	ffffe097          	auipc	ra,0xffffe
    80002f3c:	5f0080e7          	jalr	1520(ra) # 80001528 <_ZN3TCB13contextSwitchEPNS_7ContextES1_>
}
    80002f40:	01813083          	ld	ra,24(sp)
    80002f44:	01013403          	ld	s0,16(sp)
    80002f48:	00813483          	ld	s1,8(sp)
    80002f4c:	00013903          	ld	s2,0(sp)
    80002f50:	02010113          	addi	sp,sp,32
    80002f54:	00008067          	ret
        Scheduler::put(old);
    80002f58:	00048513          	mv	a0,s1
    80002f5c:	fffff097          	auipc	ra,0xfffff
    80002f60:	a38080e7          	jalr	-1480(ra) # 80001994 <_ZN9Scheduler3putEP3TCB>
    80002f64:	fb9ff06f          	j	80002f1c <_ZN3TCB8dispatchEbP4_sem+0x48>

0000000080002f68 <_ZN3TCB11getAwaitingEv>:
{
    80002f68:	fe010113          	addi	sp,sp,-32
    80002f6c:	00113c23          	sd	ra,24(sp)
    80002f70:	00813823          	sd	s0,16(sp)
    80002f74:	00913423          	sd	s1,8(sp)
    80002f78:	02010413          	addi	s0,sp,32
    80002f7c:	00050793          	mv	a5,a0
        if (!head) { return 0; }
    80002f80:	04853503          	ld	a0,72(a0)
    80002f84:	02050e63          	beqz	a0,80002fc0 <_ZN3TCB11getAwaitingEv+0x58>
        head = head->next;
    80002f88:	00853703          	ld	a4,8(a0)
    80002f8c:	04e7b423          	sd	a4,72(a5)
        if (!head) { tail = 0; }
    80002f90:	02070463          	beqz	a4,80002fb8 <_ZN3TCB11getAwaitingEv+0x50>
        T *ret = elem->data;
    80002f94:	00053483          	ld	s1,0(a0)
            MemoryAllocator::free(ptr);
    80002f98:	00001097          	auipc	ra,0x1
    80002f9c:	9f0080e7          	jalr	-1552(ra) # 80003988 <_ZN15MemoryAllocator4freeEPv>
}
    80002fa0:	00048513          	mv	a0,s1
    80002fa4:	01813083          	ld	ra,24(sp)
    80002fa8:	01013403          	ld	s0,16(sp)
    80002fac:	00813483          	ld	s1,8(sp)
    80002fb0:	02010113          	addi	sp,sp,32
    80002fb4:	00008067          	ret
        if (!head) { tail = 0; }
    80002fb8:	0407b823          	sd	zero,80(a5)
    80002fbc:	fd9ff06f          	j	80002f94 <_ZN3TCB11getAwaitingEv+0x2c>
        if (!head) { return 0; }
    80002fc0:	00050493          	mv	s1,a0
    return awaitingThreads.removeFirst();
    80002fc4:	fddff06f          	j	80002fa0 <_ZN3TCB11getAwaitingEv+0x38>

0000000080002fc8 <_ZN3TCB11putAwaitingEPS_>:
{
    80002fc8:	fe010113          	addi	sp,sp,-32
    80002fcc:	00113c23          	sd	ra,24(sp)
    80002fd0:	00813823          	sd	s0,16(sp)
    80002fd4:	00913423          	sd	s1,8(sp)
    80002fd8:	01213023          	sd	s2,0(sp)
    80002fdc:	02010413          	addi	s0,sp,32
    80002fe0:	00050493          	mv	s1,a0
    80002fe4:	00058913          	mv	s2,a1
        void* allocated = MemoryAllocator::malloc_bytes(sizeof(Elem));
    80002fe8:	01000513          	li	a0,16
    80002fec:	00001097          	auipc	ra,0x1
    80002ff0:	95c080e7          	jalr	-1700(ra) # 80003948 <_ZN15MemoryAllocator12malloc_bytesEm>
        Elem(T *data, Elem *next) : data(data), next(next) {}
    80002ff4:	01253023          	sd	s2,0(a0)
    80002ff8:	00053423          	sd	zero,8(a0)
        if (tail)
    80002ffc:	0504b783          	ld	a5,80(s1)
    80003000:	02078263          	beqz	a5,80003024 <_ZN3TCB11putAwaitingEPS_+0x5c>
            tail->next = elem;
    80003004:	00a7b423          	sd	a0,8(a5)
            tail = elem;
    80003008:	04a4b823          	sd	a0,80(s1)
}
    8000300c:	01813083          	ld	ra,24(sp)
    80003010:	01013403          	ld	s0,16(sp)
    80003014:	00813483          	ld	s1,8(sp)
    80003018:	00013903          	ld	s2,0(sp)
    8000301c:	02010113          	addi	sp,sp,32
    80003020:	00008067          	ret
            head = tail = elem;
    80003024:	04a4b823          	sd	a0,80(s1)
    80003028:	04a4b423          	sd	a0,72(s1)
    8000302c:	fe1ff06f          	j	8000300c <_ZN3TCB11putAwaitingEPS_+0x44>

0000000080003030 <_ZN3TCB5sleepEm>:
    if(time>0){
    80003030:	00051663          	bnez	a0,8000303c <_ZN3TCB5sleepEm+0xc>
}
    80003034:	00000513          	li	a0,0
    80003038:	00008067          	ret
int TCB::sleep(size_t time){
    8000303c:	fe010113          	addi	sp,sp,-32
    80003040:	00113c23          	sd	ra,24(sp)
    80003044:	00813823          	sd	s0,16(sp)
    80003048:	00913423          	sd	s1,8(sp)
    8000304c:	01213023          	sd	s2,0(sp)
    80003050:	02010413          	addi	s0,sp,32
        TCB::running->sleepTime=time;
    80003054:	0000a917          	auipc	s2,0xa
    80003058:	c9c90913          	addi	s2,s2,-868 # 8000ccf0 <_ZN3TCB15sleepingThreadsE>
    8000305c:	01093483          	ld	s1,16(s2)
    80003060:	04a4b023          	sd	a0,64(s1)
        if (!tail) { return 0; }
        return tail->data;
    }

    void addInOrder(T *data){
        void* allocated = MemoryAllocator::malloc_bytes(sizeof(Elem));
    80003064:	01000513          	li	a0,16
    80003068:	00001097          	auipc	ra,0x1
    8000306c:	8e0080e7          	jalr	-1824(ra) # 80003948 <_ZN15MemoryAllocator12malloc_bytesEm>
        Elem(T *data, Elem *next) : data(data), next(next) {}
    80003070:	00953023          	sd	s1,0(a0)
    80003074:	00053423          	sd	zero,8(a0)
        Elem *elem = new (allocated) Elem(data, 0);

        Elem* prev = 0;
        Elem* current  = head;
    80003078:	00093783          	ld	a5,0(s2)
        return sleepTime;
    8000307c:	0404b583          	ld	a1,64(s1)

        size_t actualSleepTime = data->getSleepTime();
        size_t sum = 0;
    80003080:	00000693          	li	a3,0
        Elem* prev = 0;
    80003084:	00000613          	li	a2,0

        while(current){
    80003088:	02078263          	beqz	a5,800030ac <_ZN3TCB5sleepEm+0x7c>
            sum += current->data->getSleepTime();
    8000308c:	0007b703          	ld	a4,0(a5)
    80003090:	04073703          	ld	a4,64(a4)
    80003094:	00d70733          	add	a4,a4,a3
            if(sum>=actualSleepTime) {
    80003098:	00b77a63          	bgeu	a4,a1,800030ac <_ZN3TCB5sleepEm+0x7c>
            sum += current->data->getSleepTime();
    8000309c:	00070693          	mv	a3,a4
                sum -= current->data->getSleepTime();
                break;
            }
            prev = current;
    800030a0:	00078613          	mv	a2,a5
            current = current->next;
    800030a4:	0087b783          	ld	a5,8(a5)
        while(current){
    800030a8:	fe1ff06f          	j	80003088 <_ZN3TCB5sleepEm+0x58>
        }

        if(prev==0){
    800030ac:	04060c63          	beqz	a2,80003104 <_ZN3TCB5sleepEm+0xd4>
            elem->next = current;
            head = elem;
            if(elem->next) elem->next->data->setSleepTime(elem->next->data->getSleepTime()-actualSleepTime);
        }else{
            size_t relativeSleepTime = actualSleepTime - sum;
    800030b0:	40d58733          	sub	a4,a1,a3
        sleepTime=time;
    800030b4:	04e4b023          	sd	a4,64(s1)
            elem->data->setSleepTime(relativeSleepTime);
            prev->next = elem;
    800030b8:	00a63423          	sd	a0,8(a2)
            elem->next = current;
    800030bc:	00f53423          	sd	a5,8(a0)
            if(elem->next==0) tail = elem;
    800030c0:	06078463          	beqz	a5,80003128 <_ZN3TCB5sleepEm+0xf8>
            else{
                elem->next->data->setSleepTime(elem->next->data->getSleepTime()-relativeSleepTime);
    800030c4:	0007b783          	ld	a5,0(a5)
        return sleepTime;
    800030c8:	0407b703          	ld	a4,64(a5)
    800030cc:	40b686b3          	sub	a3,a3,a1
    800030d0:	00e686b3          	add	a3,a3,a4
        sleepTime=time;
    800030d4:	04d7b023          	sd	a3,64(a5)
        TCB::dispatch(false);
    800030d8:	00000593          	li	a1,0
    800030dc:	00000513          	li	a0,0
    800030e0:	00000097          	auipc	ra,0x0
    800030e4:	df4080e7          	jalr	-524(ra) # 80002ed4 <_ZN3TCB8dispatchEbP4_sem>
}
    800030e8:	00000513          	li	a0,0
    800030ec:	01813083          	ld	ra,24(sp)
    800030f0:	01013403          	ld	s0,16(sp)
    800030f4:	00813483          	ld	s1,8(sp)
    800030f8:	00013903          	ld	s2,0(sp)
    800030fc:	02010113          	addi	sp,sp,32
    80003100:	00008067          	ret
            elem->next = current;
    80003104:	00f53423          	sd	a5,8(a0)
            head = elem;
    80003108:	0000a717          	auipc	a4,0xa
    8000310c:	bea73423          	sd	a0,-1048(a4) # 8000ccf0 <_ZN3TCB15sleepingThreadsE>
            if(elem->next) elem->next->data->setSleepTime(elem->next->data->getSleepTime()-actualSleepTime);
    80003110:	fc0784e3          	beqz	a5,800030d8 <_ZN3TCB5sleepEm+0xa8>
    80003114:	0007b783          	ld	a5,0(a5)
        return sleepTime;
    80003118:	0407b683          	ld	a3,64(a5)
    8000311c:	40b686b3          	sub	a3,a3,a1
        sleepTime=time;
    80003120:	04d7b023          	sd	a3,64(a5)
    }
    80003124:	fb5ff06f          	j	800030d8 <_ZN3TCB5sleepEm+0xa8>
            if(elem->next==0) tail = elem;
    80003128:	0000a797          	auipc	a5,0xa
    8000312c:	bca7b823          	sd	a0,-1072(a5) # 8000ccf8 <_ZN3TCB15sleepingThreadsE+0x8>
    80003130:	fa9ff06f          	j	800030d8 <_ZN3TCB5sleepEm+0xa8>

0000000080003134 <_ZN3TCB11wakeThreadsEv>:
        if (!head) { return 0; }
    80003134:	0000a517          	auipc	a0,0xa
    80003138:	bbc53503          	ld	a0,-1092(a0) # 8000ccf0 <_ZN3TCB15sleepingThreadsE>
    8000313c:	0c050863          	beqz	a0,8000320c <_ZN3TCB11wakeThreadsEv+0xd8>
        return head->data;
    80003140:	00053703          	ld	a4,0(a0)
    if(sleeping){
    80003144:	0c070463          	beqz	a4,8000320c <_ZN3TCB11wakeThreadsEv+0xd8>
        sleepTime--;
    80003148:	04073783          	ld	a5,64(a4)
    8000314c:	fff78793          	addi	a5,a5,-1
    80003150:	04f73023          	sd	a5,64(a4)
        if(sleeping->getSleepTime()==0){
    80003154:	0a079c63          	bnez	a5,8000320c <_ZN3TCB11wakeThreadsEv+0xd8>
void TCB::wakeThreads(){
    80003158:	fe010113          	addi	sp,sp,-32
    8000315c:	00113c23          	sd	ra,24(sp)
    80003160:	00813823          	sd	s0,16(sp)
    80003164:	00913423          	sd	s1,8(sp)
    80003168:	02010413          	addi	s0,sp,32
        head = head->next;
    8000316c:	00853783          	ld	a5,8(a0)
    80003170:	0000a717          	auipc	a4,0xa
    80003174:	b8f73023          	sd	a5,-1152(a4) # 8000ccf0 <_ZN3TCB15sleepingThreadsE>
        if (!head) { tail = 0; }
    80003178:	00078a63          	beqz	a5,8000318c <_ZN3TCB11wakeThreadsEv+0x58>
        T *ret = elem->data;
    8000317c:	00053483          	ld	s1,0(a0)
            MemoryAllocator::free(ptr);
    80003180:	00001097          	auipc	ra,0x1
    80003184:	808080e7          	jalr	-2040(ra) # 80003988 <_ZN15MemoryAllocator4freeEPv>
    80003188:	0340006f          	j	800031bc <_ZN3TCB11wakeThreadsEv+0x88>
        if (!head) { tail = 0; }
    8000318c:	0000a797          	auipc	a5,0xa
    80003190:	b607b623          	sd	zero,-1172(a5) # 8000ccf8 <_ZN3TCB15sleepingThreadsE+0x8>
    80003194:	fe9ff06f          	j	8000317c <_ZN3TCB11wakeThreadsEv+0x48>
                if(temp->isFinished()==false) Scheduler::put(temp);
    80003198:	00048513          	mv	a0,s1
    8000319c:	ffffe097          	auipc	ra,0xffffe
    800031a0:	7f8080e7          	jalr	2040(ra) # 80001994 <_ZN9Scheduler3putEP3TCB>
    800031a4:	0240006f          	j	800031c8 <_ZN3TCB11wakeThreadsEv+0x94>
    800031a8:	0000a797          	auipc	a5,0xa
    800031ac:	b407b823          	sd	zero,-1200(a5) # 8000ccf8 <_ZN3TCB15sleepingThreadsE+0x8>
        T *ret = elem->data;
    800031b0:	00053483          	ld	s1,0(a0)
            MemoryAllocator::free(ptr);
    800031b4:	00000097          	auipc	ra,0x0
    800031b8:	7d4080e7          	jalr	2004(ra) # 80003988 <_ZN15MemoryAllocator4freeEPv>
            while(temp){
    800031bc:	02048e63          	beqz	s1,800031f8 <_ZN3TCB11wakeThreadsEv+0xc4>
        return finished;
    800031c0:	0384c783          	lbu	a5,56(s1)
                if(temp->isFinished()==false) Scheduler::put(temp);
    800031c4:	fc078ae3          	beqz	a5,80003198 <_ZN3TCB11wakeThreadsEv+0x64>
        if (!head) { return 0; }
    800031c8:	0000a517          	auipc	a0,0xa
    800031cc:	b2853503          	ld	a0,-1240(a0) # 8000ccf0 <_ZN3TCB15sleepingThreadsE>
    800031d0:	02050463          	beqz	a0,800031f8 <_ZN3TCB11wakeThreadsEv+0xc4>
        return head->data;
    800031d4:	00053783          	ld	a5,0(a0)
                if(!temp || temp->getSleepTime()!=0) break;
    800031d8:	02078063          	beqz	a5,800031f8 <_ZN3TCB11wakeThreadsEv+0xc4>
        return sleepTime;
    800031dc:	0407b783          	ld	a5,64(a5)
    800031e0:	00079c63          	bnez	a5,800031f8 <_ZN3TCB11wakeThreadsEv+0xc4>
        head = head->next;
    800031e4:	00853783          	ld	a5,8(a0)
    800031e8:	0000a717          	auipc	a4,0xa
    800031ec:	b0f73423          	sd	a5,-1272(a4) # 8000ccf0 <_ZN3TCB15sleepingThreadsE>
        if (!head) { tail = 0; }
    800031f0:	fc0790e3          	bnez	a5,800031b0 <_ZN3TCB11wakeThreadsEv+0x7c>
    800031f4:	fb5ff06f          	j	800031a8 <_ZN3TCB11wakeThreadsEv+0x74>
}
    800031f8:	01813083          	ld	ra,24(sp)
    800031fc:	01013403          	ld	s0,16(sp)
    80003200:	00813483          	ld	s1,8(sp)
    80003204:	02010113          	addi	sp,sp,32
    80003208:	00008067          	ret
    8000320c:	00008067          	ret

0000000080003210 <_ZN3TCB10idleThreadEPv>:
void TCB::idleThread(void *arg) {
    80003210:	ff010113          	addi	sp,sp,-16
    80003214:	00813423          	sd	s0,8(sp)
    80003218:	01010413          	addi	s0,sp,16
    while(true){
    8000321c:	0000006f          	j	8000321c <_ZN3TCB10idleThreadEPv+0xc>

0000000080003220 <_ZN3TCB18consoleWriteThreadEPv>:
        while((*((char*)(CONSOLE_STATUS)) & CONSOLE_TX_STATUS_BIT)){
    80003220:	0000a797          	auipc	a5,0xa
    80003224:	9e07b783          	ld	a5,-1568(a5) # 8000cc00 <_GLOBAL_OFFSET_TABLE_+0x10>
    80003228:	0007b783          	ld	a5,0(a5)
    8000322c:	0007c783          	lbu	a5,0(a5)
    80003230:	0207f793          	andi	a5,a5,32
    80003234:	fe0786e3          	beqz	a5,80003220 <_ZN3TCB18consoleWriteThreadEPv>
void TCB::consoleWriteThread(void *arg) {
    80003238:	fe010113          	addi	sp,sp,-32
    8000323c:	00113c23          	sd	ra,24(sp)
    80003240:	00813823          	sd	s0,16(sp)
    80003244:	00913423          	sd	s1,8(sp)
    80003248:	01213023          	sd	s2,0(sp)
    8000324c:	02010413          	addi	s0,sp,32
            char c = outputBuffer->receiveSys();
    80003250:	0000a797          	auipc	a5,0xa
    80003254:	9a87b783          	ld	a5,-1624(a5) # 8000cbf8 <_GLOBAL_OFFSET_TABLE_+0x8>
    80003258:	0007b483          	ld	s1,0(a5)
        sem_wait(mutex);
    8000325c:	0184b503          	ld	a0,24(s1)
    80003260:	ffffe097          	auipc	ra,0xffffe
    80003264:	558080e7          	jalr	1368(ra) # 800017b8 <_Z8sem_waitP4_sem>
        if (front == -1) return true;
    80003268:	0104a703          	lw	a4,16(s1)
    8000326c:	fff00793          	li	a5,-1
    80003270:	06f70e63          	beq	a4,a5,800032ec <_ZN3TCB18consoleWriteThreadEPv+0xcc>
        if (front == -1){
            // ???
            return buffer[0];
        }

        int data = buffer[front];
    80003274:	0004b783          	ld	a5,0(s1)
    80003278:	00e787b3          	add	a5,a5,a4
    8000327c:	0007c903          	lbu	s2,0(a5)
        buffer[front] = -1;
    80003280:	fff00713          	li	a4,-1
    80003284:	00e78023          	sb	a4,0(a5)

        if (front == rear)
    80003288:	0104a783          	lw	a5,16(s1)
    8000328c:	00c4a703          	lw	a4,12(s1)
    80003290:	08e78263          	beq	a5,a4,80003314 <_ZN3TCB18consoleWriteThreadEPv+0xf4>
        {
            front = -1;
            rear = -1;
        }

        else if (front == size - 1)
    80003294:	0084a703          	lw	a4,8(s1)
    80003298:	fff7071b          	addiw	a4,a4,-1
    8000329c:	08e78463          	beq	a5,a4,80003324 <_ZN3TCB18consoleWriteThreadEPv+0x104>
            front = 0;

        else
            front++;
    800032a0:	0017879b          	addiw	a5,a5,1
    800032a4:	00f4a823          	sw	a5,16(s1)
        if (notFull->value()<0) sem_signal(notFull);
    800032a8:	0284b503          	ld	a0,40(s1)
        void lock();
        void unlock();
        int wait();
        int signal();
        int value(){
            return val;
    800032ac:	00052783          	lw	a5,0(a0)
    800032b0:	0607ce63          	bltz	a5,8000332c <_ZN3TCB18consoleWriteThreadEPv+0x10c>
        sem_signal(mutex);
    800032b4:	0184b503          	ld	a0,24(s1)
    800032b8:	ffffe097          	auipc	ra,0xffffe
    800032bc:	538080e7          	jalr	1336(ra) # 800017f0 <_Z10sem_signalP4_sem>
            *((char*)CONSOLE_TX_DATA) = c;
    800032c0:	0000a797          	auipc	a5,0xa
    800032c4:	9607b783          	ld	a5,-1696(a5) # 8000cc20 <_GLOBAL_OFFSET_TABLE_+0x30>
    800032c8:	0007b783          	ld	a5,0(a5)
    800032cc:	01278023          	sb	s2,0(a5)
        while((*((char*)(CONSOLE_STATUS)) & CONSOLE_TX_STATUS_BIT)){
    800032d0:	0000a797          	auipc	a5,0xa
    800032d4:	9307b783          	ld	a5,-1744(a5) # 8000cc00 <_GLOBAL_OFFSET_TABLE_+0x10>
    800032d8:	0007b783          	ld	a5,0(a5)
    800032dc:	0007c783          	lbu	a5,0(a5)
    800032e0:	0207f793          	andi	a5,a5,32
    800032e4:	fe0786e3          	beqz	a5,800032d0 <_ZN3TCB18consoleWriteThreadEPv+0xb0>
    800032e8:	f69ff06f          	j	80003250 <_ZN3TCB18consoleWriteThreadEPv+0x30>
            sem_signal(mutex);
    800032ec:	0184b503          	ld	a0,24(s1)
    800032f0:	ffffe097          	auipc	ra,0xffffe
    800032f4:	500080e7          	jalr	1280(ra) # 800017f0 <_Z10sem_signalP4_sem>
            sem_wait(notEmpty);
    800032f8:	0204b503          	ld	a0,32(s1)
    800032fc:	ffffe097          	auipc	ra,0xffffe
    80003300:	4bc080e7          	jalr	1212(ra) # 800017b8 <_Z8sem_waitP4_sem>
            sem_wait(mutex);
    80003304:	0184b503          	ld	a0,24(s1)
    80003308:	ffffe097          	auipc	ra,0xffffe
    8000330c:	4b0080e7          	jalr	1200(ra) # 800017b8 <_Z8sem_waitP4_sem>
        while (isEmpty()) {
    80003310:	f59ff06f          	j	80003268 <_ZN3TCB18consoleWriteThreadEPv+0x48>
            front = -1;
    80003314:	fff00793          	li	a5,-1
    80003318:	00f4a823          	sw	a5,16(s1)
            rear = -1;
    8000331c:	00f4a623          	sw	a5,12(s1)
    80003320:	f89ff06f          	j	800032a8 <_ZN3TCB18consoleWriteThreadEPv+0x88>
            front = 0;
    80003324:	0004a823          	sw	zero,16(s1)
    80003328:	f81ff06f          	j	800032a8 <_ZN3TCB18consoleWriteThreadEPv+0x88>
        if (notFull->value()<0) sem_signal(notFull);
    8000332c:	ffffe097          	auipc	ra,0xffffe
    80003330:	4c4080e7          	jalr	1220(ra) # 800017f0 <_Z10sem_signalP4_sem>
    80003334:	f81ff06f          	j	800032b4 <_ZN3TCB18consoleWriteThreadEPv+0x94>

0000000080003338 <_GLOBAL__sub_I__ZN3TCB7runningE>:
}
    80003338:	ff010113          	addi	sp,sp,-16
    8000333c:	00113423          	sd	ra,8(sp)
    80003340:	00813023          	sd	s0,0(sp)
    80003344:	01010413          	addi	s0,sp,16
    80003348:	000105b7          	lui	a1,0x10
    8000334c:	fff58593          	addi	a1,a1,-1 # ffff <_entry-0x7fff0001>
    80003350:	00100513          	li	a0,1
    80003354:	00000097          	auipc	ra,0x0
    80003358:	8a4080e7          	jalr	-1884(ra) # 80002bf8 <_Z41__static_initialization_and_destruction_0ii>
    8000335c:	00813083          	ld	ra,8(sp)
    80003360:	00013403          	ld	s0,0(sp)
    80003364:	01010113          	addi	sp,sp,16
    80003368:	00008067          	ret

000000008000336c <_ZN4_sem4lockEv>:
#include "../h/_sem.hpp"

void _sem::lock(){
    8000336c:	ff010113          	addi	sp,sp,-16
    80003370:	00813423          	sd	s0,8(sp)
    80003374:	01010413          	addi	s0,sp,16
    register uint64 swapWith = 1;
    80003378:	00100793          	li	a5,1
    while(swapWith==1) {
    8000337c:	00100713          	li	a4,1
    80003380:	00e79863          	bne	a5,a4,80003390 <_ZN4_sem4lockEv+0x24>
        __asm__ volatile("amoswap.d.aq %[reg], %[rs2], %[rs1]"
                :[reg] "=r"(swapWith), [rs1] "+A"(this->lck)
        :[rs2] "r"(swapWith));
    80003384:	00850713          	addi	a4,a0,8
    80003388:	0cf737af          	amoswap.d.aq	a5,a5,(a4)
    while(swapWith==1) {
    8000338c:	ff1ff06f          	j	8000337c <_ZN4_sem4lockEv+0x10>
    }
}
    80003390:	00813403          	ld	s0,8(sp)
    80003394:	01010113          	addi	sp,sp,16
    80003398:	00008067          	ret

000000008000339c <_ZN4_sem6unlockEv>:
void _sem::unlock(){
    8000339c:	ff010113          	addi	sp,sp,-16
    800033a0:	00813423          	sd	s0,8(sp)
    800033a4:	01010413          	addi	s0,sp,16
    lck = 0;
    800033a8:	00053423          	sd	zero,8(a0)
}
    800033ac:	00813403          	ld	s0,8(sp)
    800033b0:	01010113          	addi	sp,sp,16
    800033b4:	00008067          	ret

00000000800033b8 <_ZN4_sem5blockEv>:
    if(++val<=0) return_code = unblock();
    _sem::unlock();
    return return_code;
}

int _sem::block() {
    800033b8:	fe010113          	addi	sp,sp,-32
    800033bc:	00113c23          	sd	ra,24(sp)
    800033c0:	00813823          	sd	s0,16(sp)
    800033c4:	00913423          	sd	s1,8(sp)
    800033c8:	01213023          	sd	s2,0(sp)
    800033cc:	02010413          	addi	s0,sp,32
    800033d0:	00050493          	mv	s1,a0
    TCB* running = TCB::running;
    800033d4:	0000a797          	auipc	a5,0xa
    800033d8:	86c7b783          	ld	a5,-1940(a5) # 8000cc40 <_GLOBAL_OFFSET_TABLE_+0x50>
    800033dc:	0007b903          	ld	s2,0(a5)
        void* allocated = MemoryAllocator::malloc_bytes(sizeof(Elem));
    800033e0:	01000513          	li	a0,16
    800033e4:	00000097          	auipc	ra,0x0
    800033e8:	564080e7          	jalr	1380(ra) # 80003948 <_ZN15MemoryAllocator12malloc_bytesEm>
        Elem(T *data, Elem *next) : data(data), next(next) {}
    800033ec:	01253023          	sd	s2,0(a0)
    800033f0:	00053423          	sd	zero,8(a0)
        if (tail)
    800033f4:	0184b783          	ld	a5,24(s1)
    800033f8:	04078e63          	beqz	a5,80003454 <_ZN4_sem5blockEv+0x9c>
            tail->next = elem;
    800033fc:	00a7b423          	sd	a0,8(a5)
            tail = elem;
    80003400:	00a4bc23          	sd	a0,24(s1)
    blockedQueue.addLast(running);
    TCB::timeSliceCounter = 0;
    80003404:	0000a797          	auipc	a5,0xa
    80003408:	80c7b783          	ld	a5,-2036(a5) # 8000cc10 <_GLOBAL_OFFSET_TABLE_+0x20>
    8000340c:	0007b023          	sd	zero,0(a5)
    TCB::dispatch(false, this);
    80003410:	00048593          	mv	a1,s1
    80003414:	00000513          	li	a0,0
    80003418:	00000097          	auipc	ra,0x0
    8000341c:	abc080e7          	jalr	-1348(ra) # 80002ed4 <_ZN3TCB8dispatchEbP4_sem>
    if(TCB::running->semaphoreDestroyed){
    80003420:	0000a797          	auipc	a5,0xa
    80003424:	8207b783          	ld	a5,-2016(a5) # 8000cc40 <_GLOBAL_OFFSET_TABLE_+0x50>
    80003428:	0007b783          	ld	a5,0(a5)
    8000342c:	0587c703          	lbu	a4,88(a5)
    80003430:	02071863          	bnez	a4,80003460 <_ZN4_sem5blockEv+0xa8>
        semaphoreDestroyed = false;
    80003434:	04078c23          	sb	zero,88(a5)
        TCB::running->clearSemaphoreDestroyed();
        return -1;
    }else{
        TCB::running->clearSemaphoreDestroyed();
        return 0;
    80003438:	00000513          	li	a0,0
    }

}
    8000343c:	01813083          	ld	ra,24(sp)
    80003440:	01013403          	ld	s0,16(sp)
    80003444:	00813483          	ld	s1,8(sp)
    80003448:	00013903          	ld	s2,0(sp)
    8000344c:	02010113          	addi	sp,sp,32
    80003450:	00008067          	ret
            head = tail = elem;
    80003454:	00a4bc23          	sd	a0,24(s1)
    80003458:	00a4b823          	sd	a0,16(s1)
    8000345c:	fa9ff06f          	j	80003404 <_ZN4_sem5blockEv+0x4c>
    80003460:	04078c23          	sb	zero,88(a5)
        return -1;
    80003464:	fff00513          	li	a0,-1
    80003468:	fd5ff06f          	j	8000343c <_ZN4_sem5blockEv+0x84>

000000008000346c <_ZN4_sem4waitEv>:
int _sem::wait() {
    8000346c:	fe010113          	addi	sp,sp,-32
    80003470:	00113c23          	sd	ra,24(sp)
    80003474:	00813823          	sd	s0,16(sp)
    80003478:	00913423          	sd	s1,8(sp)
    8000347c:	01213023          	sd	s2,0(sp)
    80003480:	02010413          	addi	s0,sp,32
    80003484:	00050493          	mv	s1,a0
    _sem::lock();
    80003488:	00000097          	auipc	ra,0x0
    8000348c:	ee4080e7          	jalr	-284(ra) # 8000336c <_ZN4_sem4lockEv>
    if(--val<0) return_code = block();
    80003490:	0004a783          	lw	a5,0(s1)
    80003494:	fff7879b          	addiw	a5,a5,-1
    80003498:	00f4a023          	sw	a5,0(s1)
    8000349c:	02079713          	slli	a4,a5,0x20
    800034a0:	02074863          	bltz	a4,800034d0 <_ZN4_sem4waitEv+0x64>
    int return_code = 0 ;
    800034a4:	00000913          	li	s2,0
    _sem::unlock();
    800034a8:	00048513          	mv	a0,s1
    800034ac:	00000097          	auipc	ra,0x0
    800034b0:	ef0080e7          	jalr	-272(ra) # 8000339c <_ZN4_sem6unlockEv>
}
    800034b4:	00090513          	mv	a0,s2
    800034b8:	01813083          	ld	ra,24(sp)
    800034bc:	01013403          	ld	s0,16(sp)
    800034c0:	00813483          	ld	s1,8(sp)
    800034c4:	00013903          	ld	s2,0(sp)
    800034c8:	02010113          	addi	sp,sp,32
    800034cc:	00008067          	ret
    if(--val<0) return_code = block();
    800034d0:	00048513          	mv	a0,s1
    800034d4:	00000097          	auipc	ra,0x0
    800034d8:	ee4080e7          	jalr	-284(ra) # 800033b8 <_ZN4_sem5blockEv>
    800034dc:	00050913          	mv	s2,a0
    800034e0:	fc9ff06f          	j	800034a8 <_ZN4_sem4waitEv+0x3c>

00000000800034e4 <_ZN4_sem7unblockEv>:

int _sem::unblock() {
    800034e4:	00050793          	mv	a5,a0
        if (!head) { return 0; }
    800034e8:	01053503          	ld	a0,16(a0)
    800034ec:	06050063          	beqz	a0,8000354c <_ZN4_sem7unblockEv+0x68>
    800034f0:	fe010113          	addi	sp,sp,-32
    800034f4:	00113c23          	sd	ra,24(sp)
    800034f8:	00813823          	sd	s0,16(sp)
    800034fc:	00913423          	sd	s1,8(sp)
    80003500:	02010413          	addi	s0,sp,32
        head = head->next;
    80003504:	00853703          	ld	a4,8(a0)
    80003508:	00e7b823          	sd	a4,16(a5)
        if (!head) { tail = 0; }
    8000350c:	02070c63          	beqz	a4,80003544 <_ZN4_sem7unblockEv+0x60>
        T *ret = elem->data;
    80003510:	00053483          	ld	s1,0(a0)
            MemoryAllocator::free(ptr);
    80003514:	00000097          	auipc	ra,0x0
    80003518:	474080e7          	jalr	1140(ra) # 80003988 <_ZN15MemoryAllocator4freeEPv>
    TCB* blocked = blockedQueue.removeFirst();
    if(blocked){
    8000351c:	02048c63          	beqz	s1,80003554 <_ZN4_sem7unblockEv+0x70>
        Scheduler::put(blocked);
    80003520:	00048513          	mv	a0,s1
    80003524:	ffffe097          	auipc	ra,0xffffe
    80003528:	470080e7          	jalr	1136(ra) # 80001994 <_ZN9Scheduler3putEP3TCB>
        return 0;
    8000352c:	00000513          	li	a0,0
    }
    return -1;
}
    80003530:	01813083          	ld	ra,24(sp)
    80003534:	01013403          	ld	s0,16(sp)
    80003538:	00813483          	ld	s1,8(sp)
    8000353c:	02010113          	addi	sp,sp,32
    80003540:	00008067          	ret
        if (!head) { tail = 0; }
    80003544:	0007bc23          	sd	zero,24(a5)
    80003548:	fc9ff06f          	j	80003510 <_ZN4_sem7unblockEv+0x2c>
    return -1;
    8000354c:	fff00513          	li	a0,-1
}
    80003550:	00008067          	ret
    return -1;
    80003554:	fff00513          	li	a0,-1
    80003558:	fd9ff06f          	j	80003530 <_ZN4_sem7unblockEv+0x4c>

000000008000355c <_ZN4_sem6signalEv>:
int _sem::signal() {
    8000355c:	fe010113          	addi	sp,sp,-32
    80003560:	00113c23          	sd	ra,24(sp)
    80003564:	00813823          	sd	s0,16(sp)
    80003568:	00913423          	sd	s1,8(sp)
    8000356c:	01213023          	sd	s2,0(sp)
    80003570:	02010413          	addi	s0,sp,32
    80003574:	00050493          	mv	s1,a0
    _sem::lock();
    80003578:	00000097          	auipc	ra,0x0
    8000357c:	df4080e7          	jalr	-524(ra) # 8000336c <_ZN4_sem4lockEv>
    if(++val<=0) return_code = unblock();
    80003580:	0004a783          	lw	a5,0(s1)
    80003584:	0017879b          	addiw	a5,a5,1
    80003588:	0007871b          	sext.w	a4,a5
    8000358c:	00f4a023          	sw	a5,0(s1)
    80003590:	02e05863          	blez	a4,800035c0 <_ZN4_sem6signalEv+0x64>
    int return_code = 0 ;
    80003594:	00000913          	li	s2,0
    _sem::unlock();
    80003598:	00048513          	mv	a0,s1
    8000359c:	00000097          	auipc	ra,0x0
    800035a0:	e00080e7          	jalr	-512(ra) # 8000339c <_ZN4_sem6unlockEv>
}
    800035a4:	00090513          	mv	a0,s2
    800035a8:	01813083          	ld	ra,24(sp)
    800035ac:	01013403          	ld	s0,16(sp)
    800035b0:	00813483          	ld	s1,8(sp)
    800035b4:	00013903          	ld	s2,0(sp)
    800035b8:	02010113          	addi	sp,sp,32
    800035bc:	00008067          	ret
    if(++val<=0) return_code = unblock();
    800035c0:	00048513          	mv	a0,s1
    800035c4:	00000097          	auipc	ra,0x0
    800035c8:	f20080e7          	jalr	-224(ra) # 800034e4 <_ZN4_sem7unblockEv>
    800035cc:	00050913          	mv	s2,a0
    800035d0:	fc9ff06f          	j	80003598 <_ZN4_sem6signalEv+0x3c>

00000000800035d4 <_ZN4_semnwEm>:

void* _sem::operator new(size_t size) {
    800035d4:	ff010113          	addi	sp,sp,-16
    800035d8:	00113423          	sd	ra,8(sp)
    800035dc:	00813023          	sd	s0,0(sp)
    800035e0:	01010413          	addi	s0,sp,16
    return MemoryAllocator::malloc_bytes(size);
    800035e4:	00000097          	auipc	ra,0x0
    800035e8:	364080e7          	jalr	868(ra) # 80003948 <_ZN15MemoryAllocator12malloc_bytesEm>
}
    800035ec:	00813083          	ld	ra,8(sp)
    800035f0:	00013403          	ld	s0,0(sp)
    800035f4:	01010113          	addi	sp,sp,16
    800035f8:	00008067          	ret

00000000800035fc <_ZN4_semnwEmPv>:
void* _sem::operator new(size_t size, void *memory) {
    800035fc:	ff010113          	addi	sp,sp,-16
    80003600:	00813423          	sd	s0,8(sp)
    80003604:	01010413          	addi	s0,sp,16
    return (_sem*) memory;
}
    80003608:	00058513          	mv	a0,a1
    8000360c:	00813403          	ld	s0,8(sp)
    80003610:	01010113          	addi	sp,sp,16
    80003614:	00008067          	ret

0000000080003618 <_ZN4_semdlEPv>:
void _sem::operator delete(void *memory) {
    80003618:	ff010113          	addi	sp,sp,-16
    8000361c:	00113423          	sd	ra,8(sp)
    80003620:	00813023          	sd	s0,0(sp)
    80003624:	01010413          	addi	s0,sp,16
    MemoryAllocator::free(memory);
    80003628:	00000097          	auipc	ra,0x0
    8000362c:	360080e7          	jalr	864(ra) # 80003988 <_ZN15MemoryAllocator4freeEPv>
}
    80003630:	00813083          	ld	ra,8(sp)
    80003634:	00013403          	ld	s0,0(sp)
    80003638:	01010113          	addi	sp,sp,16
    8000363c:	00008067          	ret

0000000080003640 <_ZN4_semD1Ev>:

_sem::~_sem() {
    80003640:	fe010113          	addi	sp,sp,-32
    80003644:	00113c23          	sd	ra,24(sp)
    80003648:	00813823          	sd	s0,16(sp)
    8000364c:	00913423          	sd	s1,8(sp)
    80003650:	01213023          	sd	s2,0(sp)
    80003654:	02010413          	addi	s0,sp,32
    80003658:	00050913          	mv	s2,a0
    8000365c:	02c0006f          	j	80003688 <_ZN4_semD1Ev+0x48>
    80003660:	00093c23          	sd	zero,24(s2)
        T *ret = elem->data;
    80003664:	00053483          	ld	s1,0(a0)
            MemoryAllocator::free(ptr);
    80003668:	00000097          	auipc	ra,0x0
    8000366c:	320080e7          	jalr	800(ra) # 80003988 <_ZN15MemoryAllocator4freeEPv>
    while (TCB* temp = blockedQueue.removeFirst()) {
    80003670:	02048863          	beqz	s1,800036a0 <_ZN4_semD1Ev+0x60>
        semaphoreDestroyed = true;
    80003674:	00100793          	li	a5,1
    80003678:	04f48c23          	sb	a5,88(s1)
        temp->setSemaphoreDestroyed();
        Scheduler::put(temp);
    8000367c:	00048513          	mv	a0,s1
    80003680:	ffffe097          	auipc	ra,0xffffe
    80003684:	314080e7          	jalr	788(ra) # 80001994 <_ZN9Scheduler3putEP3TCB>
        if (!head) { return 0; }
    80003688:	01093503          	ld	a0,16(s2)
    8000368c:	00050a63          	beqz	a0,800036a0 <_ZN4_semD1Ev+0x60>
        head = head->next;
    80003690:	00853783          	ld	a5,8(a0)
    80003694:	00f93823          	sd	a5,16(s2)
        if (!head) { tail = 0; }
    80003698:	fc0796e3          	bnez	a5,80003664 <_ZN4_semD1Ev+0x24>
    8000369c:	fc5ff06f          	j	80003660 <_ZN4_semD1Ev+0x20>

    }
}
    800036a0:	01813083          	ld	ra,24(sp)
    800036a4:	01013403          	ld	s0,16(sp)
    800036a8:	00813483          	ld	s1,8(sp)
    800036ac:	00013903          	ld	s2,0(sp)
    800036b0:	02010113          	addi	sp,sp,32
    800036b4:	00008067          	ret

00000000800036b8 <_Z10signalWaitP4_semS0_>:


void signalWait (_sem* s, _sem* w){
    800036b8:	fe010113          	addi	sp,sp,-32
    800036bc:	00113c23          	sd	ra,24(sp)
    800036c0:	00813823          	sd	s0,16(sp)
    800036c4:	00913423          	sd	s1,8(sp)
    800036c8:	01213023          	sd	s2,0(sp)
    800036cc:	02010413          	addi	s0,sp,32
    800036d0:	00050913          	mv	s2,a0
    800036d4:	00058493          	mv	s1,a1
    s->lock();
    800036d8:	00000097          	auipc	ra,0x0
    800036dc:	c94080e7          	jalr	-876(ra) # 8000336c <_ZN4_sem4lockEv>
    if (s && s->val++<0) s->unblock();
    800036e0:	00090a63          	beqz	s2,800036f4 <_Z10signalWaitP4_semS0_+0x3c>
    800036e4:	00092783          	lw	a5,0(s2)
    800036e8:	0017871b          	addiw	a4,a5,1
    800036ec:	00e92023          	sw	a4,0(s2)
    800036f0:	0407cc63          	bltz	a5,80003748 <_Z10signalWaitP4_semS0_+0x90>
    s->unlock();
    800036f4:	00090513          	mv	a0,s2
    800036f8:	00000097          	auipc	ra,0x0
    800036fc:	ca4080e7          	jalr	-860(ra) # 8000339c <_ZN4_sem6unlockEv>
    w->lock();
    80003700:	00048513          	mv	a0,s1
    80003704:	00000097          	auipc	ra,0x0
    80003708:	c68080e7          	jalr	-920(ra) # 8000336c <_ZN4_sem4lockEv>
    if (w && --w->val<0) w->block();
    8000370c:	00048c63          	beqz	s1,80003724 <_Z10signalWaitP4_semS0_+0x6c>
    80003710:	0004a783          	lw	a5,0(s1)
    80003714:	fff7879b          	addiw	a5,a5,-1
    80003718:	00f4a023          	sw	a5,0(s1)
    8000371c:	02079713          	slli	a4,a5,0x20
    80003720:	02074c63          	bltz	a4,80003758 <_Z10signalWaitP4_semS0_+0xa0>
    w->unlock();
    80003724:	00048513          	mv	a0,s1
    80003728:	00000097          	auipc	ra,0x0
    8000372c:	c74080e7          	jalr	-908(ra) # 8000339c <_ZN4_sem6unlockEv>
    80003730:	01813083          	ld	ra,24(sp)
    80003734:	01013403          	ld	s0,16(sp)
    80003738:	00813483          	ld	s1,8(sp)
    8000373c:	00013903          	ld	s2,0(sp)
    80003740:	02010113          	addi	sp,sp,32
    80003744:	00008067          	ret
    if (s && s->val++<0) s->unblock();
    80003748:	00090513          	mv	a0,s2
    8000374c:	00000097          	auipc	ra,0x0
    80003750:	d98080e7          	jalr	-616(ra) # 800034e4 <_ZN4_sem7unblockEv>
    80003754:	fa1ff06f          	j	800036f4 <_Z10signalWaitP4_semS0_+0x3c>
    if (w && --w->val<0) w->block();
    80003758:	00048513          	mv	a0,s1
    8000375c:	00000097          	auipc	ra,0x0
    80003760:	c5c080e7          	jalr	-932(ra) # 800033b8 <_ZN4_sem5blockEv>
    80003764:	fc1ff06f          	j	80003724 <_Z10signalWaitP4_semS0_+0x6c>

0000000080003768 <_ZN15MemoryAllocator4initEv>:

Block* MemoryAllocator::free_memory;
bool MemoryAllocator::initialized = false;
size_t MemoryAllocator::mem_block_offset = 0;

void MemoryAllocator::init(){
    80003768:	ff010113          	addi	sp,sp,-16
    8000376c:	00813423          	sd	s0,8(sp)
    80003770:	01010413          	addi	s0,sp,16

    // Finding offset of MEM_BLOCK_SIZE for shift operations.
    // For MEM_BLOCK_SIZE=64 offset is 5 (2^5=64)
    size_t i = MEM_BLOCK_SIZE;
    80003774:	04000713          	li	a4,64
    while (i >>= 1) {
    80003778:	00175713          	srli	a4,a4,0x1
    8000377c:	00070e63          	beqz	a4,80003798 <_ZN15MemoryAllocator4initEv+0x30>
        ++MemoryAllocator::mem_block_offset;
    80003780:	00009697          	auipc	a3,0x9
    80003784:	59068693          	addi	a3,a3,1424 # 8000cd10 <_ZN15MemoryAllocator16mem_block_offsetE>
    80003788:	0006b783          	ld	a5,0(a3)
    8000378c:	00178793          	addi	a5,a5,1
    80003790:	00f6b023          	sd	a5,0(a3)
    while (i >>= 1) {
    80003794:	fe5ff06f          	j	80003778 <_ZN15MemoryAllocator4initEv+0x10>
    }

    // Align heap forward if not aligned to MEM_BLOCK_SIZE
    uint64 aligned_heap_start;
    uint64 modulo = (uint64)HEAP_START_ADDR & ((uint64)MEM_BLOCK_SIZE-1);
    80003798:	00009797          	auipc	a5,0x9
    8000379c:	4707b783          	ld	a5,1136(a5) # 8000cc08 <_GLOBAL_OFFSET_TABLE_+0x18>
    800037a0:	0007b783          	ld	a5,0(a5)
    800037a4:	03f7f713          	andi	a4,a5,63
    aligned_heap_start = modulo==0x0? (uint64)HEAP_START_ADDR: (uint64)HEAP_START_ADDR+(uint64)MEM_BLOCK_SIZE-modulo;
    800037a8:	00070663          	beqz	a4,800037b4 <_ZN15MemoryAllocator4initEv+0x4c>
    800037ac:	40e787b3          	sub	a5,a5,a4
    800037b0:	04078793          	addi	a5,a5,64

    // List of free segment has only one free segment
    // with size of whole available heap
    MemoryAllocator::free_memory = (Block*) aligned_heap_start;
    800037b4:	00009697          	auipc	a3,0x9
    800037b8:	55c68693          	addi	a3,a3,1372 # 8000cd10 <_ZN15MemoryAllocator16mem_block_offsetE>
    800037bc:	00f6b423          	sd	a5,8(a3)
    MemoryAllocator::free_memory->size = ((uint64)HEAP_END_ADDR - aligned_heap_start)/(uint64)MEM_BLOCK_SIZE;
    800037c0:	00009717          	auipc	a4,0x9
    800037c4:	48873703          	ld	a4,1160(a4) # 8000cc48 <_GLOBAL_OFFSET_TABLE_+0x58>
    800037c8:	00073703          	ld	a4,0(a4)
    800037cc:	40f70733          	sub	a4,a4,a5
    800037d0:	00675713          	srli	a4,a4,0x6
    800037d4:	00e7b023          	sd	a4,0(a5)
    MemoryAllocator::free_memory->next = nullptr;
    800037d8:	0086b783          	ld	a5,8(a3)
    800037dc:	0007b423          	sd	zero,8(a5)
    MemoryAllocator::free_memory->prev = nullptr;
    800037e0:	0007b823          	sd	zero,16(a5)

    MemoryAllocator::initialized = true;
    800037e4:	00100793          	li	a5,1
    800037e8:	00f68823          	sb	a5,16(a3)

}
    800037ec:	00813403          	ld	s0,8(sp)
    800037f0:	01010113          	addi	sp,sp,16
    800037f4:	00008067          	ret

00000000800037f8 <_ZN15MemoryAllocator16remove_from_listEP5Block>:
    size_t size_in_blocks = size & (MEM_BLOCK_SIZE-1)? size/MEM_BLOCK_SIZE +1 : size/MEM_BLOCK_SIZE;
    return MemoryAllocator::malloc(size_in_blocks);
}


void MemoryAllocator::remove_from_list(Block* element){
    800037f8:	ff010113          	addi	sp,sp,-16
    800037fc:	00813423          	sd	s0,8(sp)
    80003800:	01010413          	addi	s0,sp,16
    if (element == nullptr) return;
    80003804:	02050863          	beqz	a0,80003834 <_ZN15MemoryAllocator16remove_from_listEP5Block+0x3c>

    if (MemoryAllocator::free_memory == element)
    80003808:	00009797          	auipc	a5,0x9
    8000380c:	5107b783          	ld	a5,1296(a5) # 8000cd18 <_ZN15MemoryAllocator11free_memoryE>
    80003810:	02a78863          	beq	a5,a0,80003840 <_ZN15MemoryAllocator16remove_from_listEP5Block+0x48>
        MemoryAllocator::free_memory = element->next;

    if (element->next != nullptr)
    80003814:	00853783          	ld	a5,8(a0)
    80003818:	00078663          	beqz	a5,80003824 <_ZN15MemoryAllocator16remove_from_listEP5Block+0x2c>
        element->next->prev = element->prev;
    8000381c:	01053703          	ld	a4,16(a0)
    80003820:	00e7b823          	sd	a4,16(a5)


    if (element->prev != nullptr)
    80003824:	01053783          	ld	a5,16(a0)
    80003828:	00078663          	beqz	a5,80003834 <_ZN15MemoryAllocator16remove_from_listEP5Block+0x3c>
        element->prev->next = element->next;
    8000382c:	00853703          	ld	a4,8(a0)
    80003830:	00e7b423          	sd	a4,8(a5)

}
    80003834:	00813403          	ld	s0,8(sp)
    80003838:	01010113          	addi	sp,sp,16
    8000383c:	00008067          	ret
        MemoryAllocator::free_memory = element->next;
    80003840:	00853783          	ld	a5,8(a0)
    80003844:	00009717          	auipc	a4,0x9
    80003848:	4cf73a23          	sd	a5,1236(a4) # 8000cd18 <_ZN15MemoryAllocator11free_memoryE>
    8000384c:	fc9ff06f          	j	80003814 <_ZN15MemoryAllocator16remove_from_listEP5Block+0x1c>

0000000080003850 <_ZN15MemoryAllocator14calculate_nextEP5Block>:



Block* MemoryAllocator::calculate_next(Block* element){
    80003850:	ff010113          	addi	sp,sp,-16
    80003854:	00813423          	sd	s0,8(sp)
    80003858:	01010413          	addi	s0,sp,16
    if(element == nullptr) return nullptr;
    8000385c:	02050463          	beqz	a0,80003884 <_ZN15MemoryAllocator14calculate_nextEP5Block+0x34>

    Block* next = (Block *) ((uint64) element + (element->size << mem_block_offset));
    80003860:	00053783          	ld	a5,0(a0)
    80003864:	00009717          	auipc	a4,0x9
    80003868:	4ac73703          	ld	a4,1196(a4) # 8000cd10 <_ZN15MemoryAllocator16mem_block_offsetE>
    8000386c:	00e797b3          	sll	a5,a5,a4
    80003870:	00f50533          	add	a0,a0,a5

    if((uint64)next>=(uint64)HEAP_END_ADDR) {
    80003874:	00009797          	auipc	a5,0x9
    80003878:	3d47b783          	ld	a5,980(a5) # 8000cc48 <_GLOBAL_OFFSET_TABLE_+0x58>
    8000387c:	0007b783          	ld	a5,0(a5)
    80003880:	00f57863          	bgeu	a0,a5,80003890 <_ZN15MemoryAllocator14calculate_nextEP5Block+0x40>
        return nullptr;
    }

    return next;

}
    80003884:	00813403          	ld	s0,8(sp)
    80003888:	01010113          	addi	sp,sp,16
    8000388c:	00008067          	ret
        return nullptr;
    80003890:	00000513          	li	a0,0
    80003894:	ff1ff06f          	j	80003884 <_ZN15MemoryAllocator14calculate_nextEP5Block+0x34>

0000000080003898 <_ZN15MemoryAllocator6mallocEm>:
void* MemoryAllocator::malloc(size_t size) {
    80003898:	fe010113          	addi	sp,sp,-32
    8000389c:	00113c23          	sd	ra,24(sp)
    800038a0:	00813823          	sd	s0,16(sp)
    800038a4:	00913423          	sd	s1,8(sp)
    800038a8:	01213023          	sd	s2,0(sp)
    800038ac:	02010413          	addi	s0,sp,32
    800038b0:	00050913          	mv	s2,a0
    if(!initialized) {
    800038b4:	00009797          	auipc	a5,0x9
    800038b8:	46c7c783          	lbu	a5,1132(a5) # 8000cd20 <_ZN15MemoryAllocator11initializedE>
    800038bc:	02078263          	beqz	a5,800038e0 <_ZN15MemoryAllocator6mallocEm+0x48>
    Block* current = MemoryAllocator::free_memory;
    800038c0:	00009497          	auipc	s1,0x9
    800038c4:	4584b483          	ld	s1,1112(s1) # 8000cd18 <_ZN15MemoryAllocator11free_memoryE>
    size++;
    800038c8:	00190913          	addi	s2,s2,1
    for (; current!=nullptr; current=current->next)
    800038cc:	02048063          	beqz	s1,800038ec <_ZN15MemoryAllocator6mallocEm+0x54>
        if (current->size >= size) break;
    800038d0:	0004b783          	ld	a5,0(s1)
    800038d4:	0127fc63          	bgeu	a5,s2,800038ec <_ZN15MemoryAllocator6mallocEm+0x54>
    for (; current!=nullptr; current=current->next)
    800038d8:	0084b483          	ld	s1,8(s1)
    800038dc:	ff1ff06f          	j	800038cc <_ZN15MemoryAllocator6mallocEm+0x34>
        MemoryAllocator::init();
    800038e0:	00000097          	auipc	ra,0x0
    800038e4:	e88080e7          	jalr	-376(ra) # 80003768 <_ZN15MemoryAllocator4initEv>
    800038e8:	fd9ff06f          	j	800038c0 <_ZN15MemoryAllocator6mallocEm+0x28>
    if(current == nullptr) {
    800038ec:	02048663          	beqz	s1,80003918 <_ZN15MemoryAllocator6mallocEm+0x80>
    size_t remaining_size = current->size - size;
    800038f0:	0004b783          	ld	a5,0(s1)
    800038f4:	412787b3          	sub	a5,a5,s2
    if(remaining_size < 2*MEM_BLOCK_SIZE){
    800038f8:	07f00713          	li	a4,127
    800038fc:	02f77c63          	bgeu	a4,a5,80003934 <_ZN15MemoryAllocator6mallocEm+0x9c>
        current->size  = remaining_size;
    80003900:	00f4b023          	sd	a5,0(s1)
        Block* allocated_block = MemoryAllocator::calculate_next(current);
    80003904:	00048513          	mv	a0,s1
    80003908:	00000097          	auipc	ra,0x0
    8000390c:	f48080e7          	jalr	-184(ra) # 80003850 <_ZN15MemoryAllocator14calculate_nextEP5Block>
        allocated_block->size = size;
    80003910:	01253023          	sd	s2,0(a0)
        return (uint64*) ((uint64) allocated_block + MEM_BLOCK_SIZE);
    80003914:	04050493          	addi	s1,a0,64
}
    80003918:	00048513          	mv	a0,s1
    8000391c:	01813083          	ld	ra,24(sp)
    80003920:	01013403          	ld	s0,16(sp)
    80003924:	00813483          	ld	s1,8(sp)
    80003928:	00013903          	ld	s2,0(sp)
    8000392c:	02010113          	addi	sp,sp,32
    80003930:	00008067          	ret
        MemoryAllocator::remove_from_list(current);
    80003934:	00048513          	mv	a0,s1
    80003938:	00000097          	auipc	ra,0x0
    8000393c:	ec0080e7          	jalr	-320(ra) # 800037f8 <_ZN15MemoryAllocator16remove_from_listEP5Block>
        return (uint64*) ((uint64) current + MEM_BLOCK_SIZE);
    80003940:	04048493          	addi	s1,s1,64
    80003944:	fd5ff06f          	j	80003918 <_ZN15MemoryAllocator6mallocEm+0x80>

0000000080003948 <_ZN15MemoryAllocator12malloc_bytesEm>:
void* MemoryAllocator::malloc_bytes(size_t size)  {
    80003948:	ff010113          	addi	sp,sp,-16
    8000394c:	00113423          	sd	ra,8(sp)
    80003950:	00813023          	sd	s0,0(sp)
    80003954:	01010413          	addi	s0,sp,16
    size_t size_in_blocks = size & (MEM_BLOCK_SIZE-1)? size/MEM_BLOCK_SIZE +1 : size/MEM_BLOCK_SIZE;
    80003958:	03f57793          	andi	a5,a0,63
    8000395c:	02078263          	beqz	a5,80003980 <_ZN15MemoryAllocator12malloc_bytesEm+0x38>
    80003960:	00655513          	srli	a0,a0,0x6
    80003964:	00150513          	addi	a0,a0,1
    return MemoryAllocator::malloc(size_in_blocks);
    80003968:	00000097          	auipc	ra,0x0
    8000396c:	f30080e7          	jalr	-208(ra) # 80003898 <_ZN15MemoryAllocator6mallocEm>
}
    80003970:	00813083          	ld	ra,8(sp)
    80003974:	00013403          	ld	s0,0(sp)
    80003978:	01010113          	addi	sp,sp,16
    8000397c:	00008067          	ret
    size_t size_in_blocks = size & (MEM_BLOCK_SIZE-1)? size/MEM_BLOCK_SIZE +1 : size/MEM_BLOCK_SIZE;
    80003980:	00655513          	srli	a0,a0,0x6
    80003984:	fe5ff06f          	j	80003968 <_ZN15MemoryAllocator12malloc_bytesEm+0x20>

0000000080003988 <_ZN15MemoryAllocator4freeEPv>:
    if(ptr==nullptr) return -1;
    80003988:	18050c63          	beqz	a0,80003b20 <_ZN15MemoryAllocator4freeEPv+0x198>
int MemoryAllocator:: free(void* ptr){
    8000398c:	fc010113          	addi	sp,sp,-64
    80003990:	02113c23          	sd	ra,56(sp)
    80003994:	02813823          	sd	s0,48(sp)
    80003998:	02913423          	sd	s1,40(sp)
    8000399c:	03213023          	sd	s2,32(sp)
    800039a0:	01313c23          	sd	s3,24(sp)
    800039a4:	01413823          	sd	s4,16(sp)
    800039a8:	01513423          	sd	s5,8(sp)
    800039ac:	04010413          	addi	s0,sp,64
    800039b0:	00050993          	mv	s3,a0
    Block* header = (Block*) ((size_t)ptr - MEM_BLOCK_SIZE);
    800039b4:	fc050913          	addi	s2,a0,-64
    800039b8:	00090a93          	mv	s5,s2
    if(header==nullptr) return -2;
    800039bc:	16090663          	beqz	s2,80003b28 <_ZN15MemoryAllocator4freeEPv+0x1a0>
    if(MemoryAllocator::free_memory==nullptr || (uint64) header < (uint64) MemoryAllocator::free_memory){
    800039c0:	00009a17          	auipc	s4,0x9
    800039c4:	358a3a03          	ld	s4,856(s4) # 8000cd18 <_ZN15MemoryAllocator11free_memoryE>
    800039c8:	060a0463          	beqz	s4,80003a30 <_ZN15MemoryAllocator4freeEPv+0xa8>
    800039cc:	07496663          	bltu	s2,s4,80003a38 <_ZN15MemoryAllocator4freeEPv+0xb0>
        for (current = MemoryAllocator::free_memory; current!=nullptr
    800039d0:	000a0493          	mv	s1,s4
    800039d4:	0080006f          	j	800039dc <_ZN15MemoryAllocator4freeEPv+0x54>
             current=current->next);
    800039d8:	00078493          	mv	s1,a5
                                                     && (uint64)current->next < (uint64)header;
    800039dc:	00048863          	beqz	s1,800039ec <_ZN15MemoryAllocator4freeEPv+0x64>
                                                     && current->next!=nullptr
    800039e0:	0084b783          	ld	a5,8(s1)
    800039e4:	00078463          	beqz	a5,800039ec <_ZN15MemoryAllocator4freeEPv+0x64>
                                                     && (uint64)current->next < (uint64)header;
    800039e8:	ff27e8e3          	bltu	a5,s2,800039d8 <_ZN15MemoryAllocator4freeEPv+0x50>
    if(current && MemoryAllocator::calculate_next(current) == header){
    800039ec:	04048863          	beqz	s1,80003a3c <_ZN15MemoryAllocator4freeEPv+0xb4>
    800039f0:	00048513          	mv	a0,s1
    800039f4:	00000097          	auipc	ra,0x0
    800039f8:	e5c080e7          	jalr	-420(ra) # 80003850 <_ZN15MemoryAllocator14calculate_nextEP5Block>
    800039fc:	04aa9063          	bne	s5,a0,80003a3c <_ZN15MemoryAllocator4freeEPv+0xb4>
        current->size += header->size;
    80003a00:	fc09b903          	ld	s2,-64(s3)
    80003a04:	0004b783          	ld	a5,0(s1)
    80003a08:	00f90933          	add	s2,s2,a5
    80003a0c:	0124b023          	sd	s2,0(s1)
        if(current->next && calculate_next(current)==current->next ){
    80003a10:	0084b983          	ld	s3,8(s1)
    80003a14:	00098a63          	beqz	s3,80003a28 <_ZN15MemoryAllocator4freeEPv+0xa0>
    80003a18:	00048513          	mv	a0,s1
    80003a1c:	00000097          	auipc	ra,0x0
    80003a20:	e34080e7          	jalr	-460(ra) # 80003850 <_ZN15MemoryAllocator14calculate_nextEP5Block>
    80003a24:	08a98263          	beq	s3,a0,80003aa8 <_ZN15MemoryAllocator4freeEPv+0x120>
        return 0;
    80003a28:	00000513          	li	a0,0
    80003a2c:	0500006f          	j	80003a7c <_ZN15MemoryAllocator4freeEPv+0xf4>
        current = nullptr;
    80003a30:	000a0493          	mv	s1,s4
    80003a34:	0080006f          	j	80003a3c <_ZN15MemoryAllocator4freeEPv+0xb4>
    80003a38:	00000493          	li	s1,0
        Block* next_block = current?current->next:MemoryAllocator::free_memory;
    80003a3c:	06048263          	beqz	s1,80003aa0 <_ZN15MemoryAllocator4freeEPv+0x118>
    80003a40:	0084ba83          	ld	s5,8(s1)
        if(next_block && MemoryAllocator::calculate_next(header)==next_block){
    80003a44:	000a8a63          	beqz	s5,80003a58 <_ZN15MemoryAllocator4freeEPv+0xd0>
    80003a48:	00090513          	mv	a0,s2
    80003a4c:	00000097          	auipc	ra,0x0
    80003a50:	e04080e7          	jalr	-508(ra) # 80003850 <_ZN15MemoryAllocator14calculate_nextEP5Block>
    80003a54:	06aa8a63          	beq	s5,a0,80003ac8 <_ZN15MemoryAllocator4freeEPv+0x140>
    header->prev = current;
    80003a58:	00993823          	sd	s1,16(s2)
    if(current) {
    80003a5c:	0a048a63          	beqz	s1,80003b10 <_ZN15MemoryAllocator4freeEPv+0x188>
        header->next = current->next;
    80003a60:	0084b783          	ld	a5,8(s1)
    80003a64:	00f93423          	sd	a5,8(s2)
        current->next = header;
    80003a68:	0124b423          	sd	s2,8(s1)
    if(header->next){
    80003a6c:	00893783          	ld	a5,8(s2)
    80003a70:	0c078063          	beqz	a5,80003b30 <_ZN15MemoryAllocator4freeEPv+0x1a8>
        header->next->prev = header;
    80003a74:	0127b823          	sd	s2,16(a5)
    return 0;
    80003a78:	00000513          	li	a0,0
}
    80003a7c:	03813083          	ld	ra,56(sp)
    80003a80:	03013403          	ld	s0,48(sp)
    80003a84:	02813483          	ld	s1,40(sp)
    80003a88:	02013903          	ld	s2,32(sp)
    80003a8c:	01813983          	ld	s3,24(sp)
    80003a90:	01013a03          	ld	s4,16(sp)
    80003a94:	00813a83          	ld	s5,8(sp)
    80003a98:	04010113          	addi	sp,sp,64
    80003a9c:	00008067          	ret
        Block* next_block = current?current->next:MemoryAllocator::free_memory;
    80003aa0:	000a0a93          	mv	s5,s4
    80003aa4:	fa1ff06f          	j	80003a44 <_ZN15MemoryAllocator4freeEPv+0xbc>
            current->size+= current->next->size;
    80003aa8:	0009b783          	ld	a5,0(s3)
    80003aac:	00f90933          	add	s2,s2,a5
    80003ab0:	0124b023          	sd	s2,0(s1)
            current->next = current->next->next;
    80003ab4:	0089b783          	ld	a5,8(s3)
    80003ab8:	00f4b423          	sd	a5,8(s1)
            if(current->next) current->next->prev = current;
    80003abc:	f60786e3          	beqz	a5,80003a28 <_ZN15MemoryAllocator4freeEPv+0xa0>
    80003ac0:	0097b823          	sd	s1,16(a5)
    80003ac4:	f65ff06f          	j	80003a28 <_ZN15MemoryAllocator4freeEPv+0xa0>
            header->size+=next_block->size;
    80003ac8:	000ab703          	ld	a4,0(s5)
    80003acc:	fc09b783          	ld	a5,-64(s3)
    80003ad0:	00e787b3          	add	a5,a5,a4
    80003ad4:	fcf9b023          	sd	a5,-64(s3)
            header->next = next_block->next;
    80003ad8:	008ab783          	ld	a5,8(s5)
    80003adc:	00f93423          	sd	a5,8(s2)
            header->prev = next_block->prev;
    80003ae0:	010ab783          	ld	a5,16(s5)
    80003ae4:	00f93823          	sd	a5,16(s2)
            if(next_block->prev) next_block->prev->next = header;
    80003ae8:	00078e63          	beqz	a5,80003b04 <_ZN15MemoryAllocator4freeEPv+0x17c>
    80003aec:	0127b423          	sd	s2,8(a5)
            if(next_block->next) next_block->next->prev = header;
    80003af0:	008ab783          	ld	a5,8(s5)
    80003af4:	00078463          	beqz	a5,80003afc <_ZN15MemoryAllocator4freeEPv+0x174>
    80003af8:	0127b823          	sd	s2,16(a5)
            return 0;
    80003afc:	00000513          	li	a0,0
    80003b00:	f7dff06f          	j	80003a7c <_ZN15MemoryAllocator4freeEPv+0xf4>
            else MemoryAllocator::free_memory= header;
    80003b04:	00009797          	auipc	a5,0x9
    80003b08:	2127ba23          	sd	s2,532(a5) # 8000cd18 <_ZN15MemoryAllocator11free_memoryE>
    80003b0c:	fe5ff06f          	j	80003af0 <_ZN15MemoryAllocator4freeEPv+0x168>
        header->next = MemoryAllocator::free_memory;
    80003b10:	01493423          	sd	s4,8(s2)
        MemoryAllocator::free_memory=header;
    80003b14:	00009797          	auipc	a5,0x9
    80003b18:	2127b223          	sd	s2,516(a5) # 8000cd18 <_ZN15MemoryAllocator11free_memoryE>
    80003b1c:	f51ff06f          	j	80003a6c <_ZN15MemoryAllocator4freeEPv+0xe4>
    if(ptr==nullptr) return -1;
    80003b20:	fff00513          	li	a0,-1
}
    80003b24:	00008067          	ret
    if(header==nullptr) return -2;
    80003b28:	ffe00513          	li	a0,-2
    80003b2c:	f51ff06f          	j	80003a7c <_ZN15MemoryAllocator4freeEPv+0xf4>
    return 0;
    80003b30:	00000513          	li	a0,0
    80003b34:	f49ff06f          	j	80003a7c <_ZN15MemoryAllocator4freeEPv+0xf4>

0000000080003b38 <_ZL16producerKeyboardPv>:
    sem_t wait;
};

static volatile int threadEnd = 0;

static void producerKeyboard(void *arg) {
    80003b38:	fe010113          	addi	sp,sp,-32
    80003b3c:	00113c23          	sd	ra,24(sp)
    80003b40:	00813823          	sd	s0,16(sp)
    80003b44:	00913423          	sd	s1,8(sp)
    80003b48:	01213023          	sd	s2,0(sp)
    80003b4c:	02010413          	addi	s0,sp,32
    80003b50:	00050493          	mv	s1,a0
    struct thread_data *data = (struct thread_data *) arg;

    int key;
    int i = 0;
    80003b54:	00000913          	li	s2,0
    80003b58:	00c0006f          	j	80003b64 <_ZL16producerKeyboardPv+0x2c>
    while ((key = getc()) != 0x1b) {
        data->buffer->put(key);
        i++;

        if (i % (10 * data->id) == 0) {
            thread_dispatch();
    80003b5c:	ffffe097          	auipc	ra,0xffffe
    80003b60:	b8c080e7          	jalr	-1140(ra) # 800016e8 <_Z15thread_dispatchv>
    while ((key = getc()) != 0x1b) {
    80003b64:	ffffe097          	auipc	ra,0xffffe
    80003b68:	cfc080e7          	jalr	-772(ra) # 80001860 <_Z4getcv>
    80003b6c:	0005059b          	sext.w	a1,a0
    80003b70:	01b00793          	li	a5,27
    80003b74:	02f58a63          	beq	a1,a5,80003ba8 <_ZL16producerKeyboardPv+0x70>
        data->buffer->put(key);
    80003b78:	0084b503          	ld	a0,8(s1)
    80003b7c:	00003097          	auipc	ra,0x3
    80003b80:	400080e7          	jalr	1024(ra) # 80006f7c <_ZN6Buffer3putEi>
        i++;
    80003b84:	0019071b          	addiw	a4,s2,1
    80003b88:	0007091b          	sext.w	s2,a4
        if (i % (10 * data->id) == 0) {
    80003b8c:	0004a683          	lw	a3,0(s1)
    80003b90:	0026979b          	slliw	a5,a3,0x2
    80003b94:	00d787bb          	addw	a5,a5,a3
    80003b98:	0017979b          	slliw	a5,a5,0x1
    80003b9c:	02f767bb          	remw	a5,a4,a5
    80003ba0:	fc0792e3          	bnez	a5,80003b64 <_ZL16producerKeyboardPv+0x2c>
    80003ba4:	fb9ff06f          	j	80003b5c <_ZL16producerKeyboardPv+0x24>
        }
    }

    threadEnd = 1;
    80003ba8:	00100793          	li	a5,1
    80003bac:	00009717          	auipc	a4,0x9
    80003bb0:	16f72e23          	sw	a5,380(a4) # 8000cd28 <_ZL9threadEnd>
    data->buffer->put('!');
    80003bb4:	02100593          	li	a1,33
    80003bb8:	0084b503          	ld	a0,8(s1)
    80003bbc:	00003097          	auipc	ra,0x3
    80003bc0:	3c0080e7          	jalr	960(ra) # 80006f7c <_ZN6Buffer3putEi>

    sem_signal(data->wait);
    80003bc4:	0104b503          	ld	a0,16(s1)
    80003bc8:	ffffe097          	auipc	ra,0xffffe
    80003bcc:	c28080e7          	jalr	-984(ra) # 800017f0 <_Z10sem_signalP4_sem>
}
    80003bd0:	01813083          	ld	ra,24(sp)
    80003bd4:	01013403          	ld	s0,16(sp)
    80003bd8:	00813483          	ld	s1,8(sp)
    80003bdc:	00013903          	ld	s2,0(sp)
    80003be0:	02010113          	addi	sp,sp,32
    80003be4:	00008067          	ret

0000000080003be8 <_ZL8producerPv>:

static void producer(void *arg) {
    80003be8:	fe010113          	addi	sp,sp,-32
    80003bec:	00113c23          	sd	ra,24(sp)
    80003bf0:	00813823          	sd	s0,16(sp)
    80003bf4:	00913423          	sd	s1,8(sp)
    80003bf8:	01213023          	sd	s2,0(sp)
    80003bfc:	02010413          	addi	s0,sp,32
    80003c00:	00050493          	mv	s1,a0
    struct thread_data *data = (struct thread_data *) arg;

    int i = 0;
    80003c04:	00000913          	li	s2,0
    80003c08:	00c0006f          	j	80003c14 <_ZL8producerPv+0x2c>
    while (!threadEnd) {
        data->buffer->put(data->id + '0');
        i++;

        if (i % (10 * data->id) == 0) {
            thread_dispatch();
    80003c0c:	ffffe097          	auipc	ra,0xffffe
    80003c10:	adc080e7          	jalr	-1316(ra) # 800016e8 <_Z15thread_dispatchv>
    while (!threadEnd) {
    80003c14:	00009797          	auipc	a5,0x9
    80003c18:	1147a783          	lw	a5,276(a5) # 8000cd28 <_ZL9threadEnd>
    80003c1c:	02079e63          	bnez	a5,80003c58 <_ZL8producerPv+0x70>
        data->buffer->put(data->id + '0');
    80003c20:	0004a583          	lw	a1,0(s1)
    80003c24:	0305859b          	addiw	a1,a1,48
    80003c28:	0084b503          	ld	a0,8(s1)
    80003c2c:	00003097          	auipc	ra,0x3
    80003c30:	350080e7          	jalr	848(ra) # 80006f7c <_ZN6Buffer3putEi>
        i++;
    80003c34:	0019071b          	addiw	a4,s2,1
    80003c38:	0007091b          	sext.w	s2,a4
        if (i % (10 * data->id) == 0) {
    80003c3c:	0004a683          	lw	a3,0(s1)
    80003c40:	0026979b          	slliw	a5,a3,0x2
    80003c44:	00d787bb          	addw	a5,a5,a3
    80003c48:	0017979b          	slliw	a5,a5,0x1
    80003c4c:	02f767bb          	remw	a5,a4,a5
    80003c50:	fc0792e3          	bnez	a5,80003c14 <_ZL8producerPv+0x2c>
    80003c54:	fb9ff06f          	j	80003c0c <_ZL8producerPv+0x24>
        }
    }

    sem_signal(data->wait);
    80003c58:	0104b503          	ld	a0,16(s1)
    80003c5c:	ffffe097          	auipc	ra,0xffffe
    80003c60:	b94080e7          	jalr	-1132(ra) # 800017f0 <_Z10sem_signalP4_sem>
}
    80003c64:	01813083          	ld	ra,24(sp)
    80003c68:	01013403          	ld	s0,16(sp)
    80003c6c:	00813483          	ld	s1,8(sp)
    80003c70:	00013903          	ld	s2,0(sp)
    80003c74:	02010113          	addi	sp,sp,32
    80003c78:	00008067          	ret

0000000080003c7c <_ZL8consumerPv>:

static void consumer(void *arg) {
    80003c7c:	fd010113          	addi	sp,sp,-48
    80003c80:	02113423          	sd	ra,40(sp)
    80003c84:	02813023          	sd	s0,32(sp)
    80003c88:	00913c23          	sd	s1,24(sp)
    80003c8c:	01213823          	sd	s2,16(sp)
    80003c90:	01313423          	sd	s3,8(sp)
    80003c94:	03010413          	addi	s0,sp,48
    80003c98:	00050913          	mv	s2,a0
    struct thread_data *data = (struct thread_data *) arg;

    int i = 0;
    80003c9c:	00000993          	li	s3,0
    80003ca0:	01c0006f          	j	80003cbc <_ZL8consumerPv+0x40>
        i++;

        putc(key);

        if (i % (5 * data->id) == 0) {
            thread_dispatch();
    80003ca4:	ffffe097          	auipc	ra,0xffffe
    80003ca8:	a44080e7          	jalr	-1468(ra) # 800016e8 <_Z15thread_dispatchv>
    80003cac:	0500006f          	j	80003cfc <_ZL8consumerPv+0x80>
        }

        if (i % 80 == 0) {
            putc('\n');
    80003cb0:	00a00513          	li	a0,10
    80003cb4:	ffffe097          	auipc	ra,0xffffe
    80003cb8:	be0080e7          	jalr	-1056(ra) # 80001894 <_Z4putcc>
    while (!threadEnd) {
    80003cbc:	00009797          	auipc	a5,0x9
    80003cc0:	06c7a783          	lw	a5,108(a5) # 8000cd28 <_ZL9threadEnd>
    80003cc4:	06079063          	bnez	a5,80003d24 <_ZL8consumerPv+0xa8>
        int key = data->buffer->get();
    80003cc8:	00893503          	ld	a0,8(s2)
    80003ccc:	00003097          	auipc	ra,0x3
    80003cd0:	340080e7          	jalr	832(ra) # 8000700c <_ZN6Buffer3getEv>
        i++;
    80003cd4:	0019849b          	addiw	s1,s3,1
    80003cd8:	0004899b          	sext.w	s3,s1
        putc(key);
    80003cdc:	0ff57513          	andi	a0,a0,255
    80003ce0:	ffffe097          	auipc	ra,0xffffe
    80003ce4:	bb4080e7          	jalr	-1100(ra) # 80001894 <_Z4putcc>
        if (i % (5 * data->id) == 0) {
    80003ce8:	00092703          	lw	a4,0(s2)
    80003cec:	0027179b          	slliw	a5,a4,0x2
    80003cf0:	00e787bb          	addw	a5,a5,a4
    80003cf4:	02f4e7bb          	remw	a5,s1,a5
    80003cf8:	fa0786e3          	beqz	a5,80003ca4 <_ZL8consumerPv+0x28>
        if (i % 80 == 0) {
    80003cfc:	05000793          	li	a5,80
    80003d00:	02f4e4bb          	remw	s1,s1,a5
    80003d04:	fa049ce3          	bnez	s1,80003cbc <_ZL8consumerPv+0x40>
    80003d08:	fa9ff06f          	j	80003cb0 <_ZL8consumerPv+0x34>
        }
    }

    while (data->buffer->getCnt() > 0) {
        int key = data->buffer->get();
    80003d0c:	00893503          	ld	a0,8(s2)
    80003d10:	00003097          	auipc	ra,0x3
    80003d14:	2fc080e7          	jalr	764(ra) # 8000700c <_ZN6Buffer3getEv>
        putc(key);
    80003d18:	0ff57513          	andi	a0,a0,255
    80003d1c:	ffffe097          	auipc	ra,0xffffe
    80003d20:	b78080e7          	jalr	-1160(ra) # 80001894 <_Z4putcc>
    while (data->buffer->getCnt() > 0) {
    80003d24:	00893503          	ld	a0,8(s2)
    80003d28:	00003097          	auipc	ra,0x3
    80003d2c:	370080e7          	jalr	880(ra) # 80007098 <_ZN6Buffer6getCntEv>
    80003d30:	fca04ee3          	bgtz	a0,80003d0c <_ZL8consumerPv+0x90>
    }

    sem_signal(data->wait);
    80003d34:	01093503          	ld	a0,16(s2)
    80003d38:	ffffe097          	auipc	ra,0xffffe
    80003d3c:	ab8080e7          	jalr	-1352(ra) # 800017f0 <_Z10sem_signalP4_sem>
}
    80003d40:	02813083          	ld	ra,40(sp)
    80003d44:	02013403          	ld	s0,32(sp)
    80003d48:	01813483          	ld	s1,24(sp)
    80003d4c:	01013903          	ld	s2,16(sp)
    80003d50:	00813983          	ld	s3,8(sp)
    80003d54:	03010113          	addi	sp,sp,48
    80003d58:	00008067          	ret

0000000080003d5c <_Z22producerConsumer_C_APIv>:

void producerConsumer_C_API() {
    80003d5c:	f9010113          	addi	sp,sp,-112
    80003d60:	06113423          	sd	ra,104(sp)
    80003d64:	06813023          	sd	s0,96(sp)
    80003d68:	04913c23          	sd	s1,88(sp)
    80003d6c:	05213823          	sd	s2,80(sp)
    80003d70:	05313423          	sd	s3,72(sp)
    80003d74:	05413023          	sd	s4,64(sp)
    80003d78:	03513c23          	sd	s5,56(sp)
    80003d7c:	03613823          	sd	s6,48(sp)
    80003d80:	07010413          	addi	s0,sp,112
        sem_wait(waitForAll);
    }

    sem_close(waitForAll);

    delete buffer;
    80003d84:	00010b13          	mv	s6,sp
    printString("Unesite broj proizvodjaca?\n");
    80003d88:	00006517          	auipc	a0,0x6
    80003d8c:	32850513          	addi	a0,a0,808 # 8000a0b0 <CONSOLE_STATUS+0xa0>
    80003d90:	00002097          	auipc	ra,0x2
    80003d94:	220080e7          	jalr	544(ra) # 80005fb0 <_Z11printStringPKc>
    getString(input, 30);
    80003d98:	01e00593          	li	a1,30
    80003d9c:	fa040493          	addi	s1,s0,-96
    80003da0:	00048513          	mv	a0,s1
    80003da4:	00002097          	auipc	ra,0x2
    80003da8:	294080e7          	jalr	660(ra) # 80006038 <_Z9getStringPci>
    threadNum = stringToInt(input);
    80003dac:	00048513          	mv	a0,s1
    80003db0:	00002097          	auipc	ra,0x2
    80003db4:	360080e7          	jalr	864(ra) # 80006110 <_Z11stringToIntPKc>
    80003db8:	00050913          	mv	s2,a0
    printString("Unesite velicinu bafera?\n");
    80003dbc:	00006517          	auipc	a0,0x6
    80003dc0:	31450513          	addi	a0,a0,788 # 8000a0d0 <CONSOLE_STATUS+0xc0>
    80003dc4:	00002097          	auipc	ra,0x2
    80003dc8:	1ec080e7          	jalr	492(ra) # 80005fb0 <_Z11printStringPKc>
    getString(input, 30);
    80003dcc:	01e00593          	li	a1,30
    80003dd0:	00048513          	mv	a0,s1
    80003dd4:	00002097          	auipc	ra,0x2
    80003dd8:	264080e7          	jalr	612(ra) # 80006038 <_Z9getStringPci>
    n = stringToInt(input);
    80003ddc:	00048513          	mv	a0,s1
    80003de0:	00002097          	auipc	ra,0x2
    80003de4:	330080e7          	jalr	816(ra) # 80006110 <_Z11stringToIntPKc>
    80003de8:	00050493          	mv	s1,a0
    printString("Broj proizvodjaca "); printInt(threadNum);
    80003dec:	00006517          	auipc	a0,0x6
    80003df0:	30450513          	addi	a0,a0,772 # 8000a0f0 <CONSOLE_STATUS+0xe0>
    80003df4:	00002097          	auipc	ra,0x2
    80003df8:	1bc080e7          	jalr	444(ra) # 80005fb0 <_Z11printStringPKc>
    80003dfc:	00000613          	li	a2,0
    80003e00:	00a00593          	li	a1,10
    80003e04:	00090513          	mv	a0,s2
    80003e08:	00002097          	auipc	ra,0x2
    80003e0c:	358080e7          	jalr	856(ra) # 80006160 <_Z8printIntiii>
    printString(" i velicina bafera "); printInt(n);
    80003e10:	00006517          	auipc	a0,0x6
    80003e14:	2f850513          	addi	a0,a0,760 # 8000a108 <CONSOLE_STATUS+0xf8>
    80003e18:	00002097          	auipc	ra,0x2
    80003e1c:	198080e7          	jalr	408(ra) # 80005fb0 <_Z11printStringPKc>
    80003e20:	00000613          	li	a2,0
    80003e24:	00a00593          	li	a1,10
    80003e28:	00048513          	mv	a0,s1
    80003e2c:	00002097          	auipc	ra,0x2
    80003e30:	334080e7          	jalr	820(ra) # 80006160 <_Z8printIntiii>
    printString(".\n");
    80003e34:	00006517          	auipc	a0,0x6
    80003e38:	2ec50513          	addi	a0,a0,748 # 8000a120 <CONSOLE_STATUS+0x110>
    80003e3c:	00002097          	auipc	ra,0x2
    80003e40:	174080e7          	jalr	372(ra) # 80005fb0 <_Z11printStringPKc>
    if(threadNum > n) {
    80003e44:	0324c463          	blt	s1,s2,80003e6c <_Z22producerConsumer_C_APIv+0x110>
    } else if (threadNum < 1) {
    80003e48:	03205c63          	blez	s2,80003e80 <_Z22producerConsumer_C_APIv+0x124>
    Buffer *buffer = new Buffer(n);
    80003e4c:	03800513          	li	a0,56
    80003e50:	ffffe097          	auipc	ra,0xffffe
    80003e54:	f78080e7          	jalr	-136(ra) # 80001dc8 <_Znwm>
    80003e58:	00050a13          	mv	s4,a0
    80003e5c:	00048593          	mv	a1,s1
    80003e60:	00003097          	auipc	ra,0x3
    80003e64:	080080e7          	jalr	128(ra) # 80006ee0 <_ZN6BufferC1Ei>
    80003e68:	0300006f          	j	80003e98 <_Z22producerConsumer_C_APIv+0x13c>
        printString("Broj proizvodjaca ne sme biti manji od velicine bafera!\n");
    80003e6c:	00006517          	auipc	a0,0x6
    80003e70:	2bc50513          	addi	a0,a0,700 # 8000a128 <CONSOLE_STATUS+0x118>
    80003e74:	00002097          	auipc	ra,0x2
    80003e78:	13c080e7          	jalr	316(ra) # 80005fb0 <_Z11printStringPKc>
        return;
    80003e7c:	0140006f          	j	80003e90 <_Z22producerConsumer_C_APIv+0x134>
        printString("Broj proizvodjaca mora biti veci od nula!\n");
    80003e80:	00006517          	auipc	a0,0x6
    80003e84:	2e850513          	addi	a0,a0,744 # 8000a168 <CONSOLE_STATUS+0x158>
    80003e88:	00002097          	auipc	ra,0x2
    80003e8c:	128080e7          	jalr	296(ra) # 80005fb0 <_Z11printStringPKc>
        return;
    80003e90:	000b0113          	mv	sp,s6
    80003e94:	1500006f          	j	80003fe4 <_Z22producerConsumer_C_APIv+0x288>
    sem_open(&waitForAll, 0);
    80003e98:	00000593          	li	a1,0
    80003e9c:	00009517          	auipc	a0,0x9
    80003ea0:	e9450513          	addi	a0,a0,-364 # 8000cd30 <_ZL10waitForAll>
    80003ea4:	ffffe097          	auipc	ra,0xffffe
    80003ea8:	898080e7          	jalr	-1896(ra) # 8000173c <_Z8sem_openPP4_semj>
    thread_t threads[threadNum];
    80003eac:	00391793          	slli	a5,s2,0x3
    80003eb0:	00f78793          	addi	a5,a5,15
    80003eb4:	ff07f793          	andi	a5,a5,-16
    80003eb8:	40f10133          	sub	sp,sp,a5
    80003ebc:	00010a93          	mv	s5,sp
    struct thread_data data[threadNum + 1];
    80003ec0:	0019071b          	addiw	a4,s2,1
    80003ec4:	00171793          	slli	a5,a4,0x1
    80003ec8:	00e787b3          	add	a5,a5,a4
    80003ecc:	00379793          	slli	a5,a5,0x3
    80003ed0:	00f78793          	addi	a5,a5,15
    80003ed4:	ff07f793          	andi	a5,a5,-16
    80003ed8:	40f10133          	sub	sp,sp,a5
    80003edc:	00010993          	mv	s3,sp
    data[threadNum].id = threadNum;
    80003ee0:	00191613          	slli	a2,s2,0x1
    80003ee4:	012607b3          	add	a5,a2,s2
    80003ee8:	00379793          	slli	a5,a5,0x3
    80003eec:	00f987b3          	add	a5,s3,a5
    80003ef0:	0127a023          	sw	s2,0(a5)
    data[threadNum].buffer = buffer;
    80003ef4:	0147b423          	sd	s4,8(a5)
    data[threadNum].wait = waitForAll;
    80003ef8:	00009717          	auipc	a4,0x9
    80003efc:	e3873703          	ld	a4,-456(a4) # 8000cd30 <_ZL10waitForAll>
    80003f00:	00e7b823          	sd	a4,16(a5)
    thread_create(&consumerThread, consumer, data + threadNum);
    80003f04:	00078613          	mv	a2,a5
    80003f08:	00000597          	auipc	a1,0x0
    80003f0c:	d7458593          	addi	a1,a1,-652 # 80003c7c <_ZL8consumerPv>
    80003f10:	f9840513          	addi	a0,s0,-104
    80003f14:	ffffd097          	auipc	ra,0xffffd
    80003f18:	6cc080e7          	jalr	1740(ra) # 800015e0 <_Z13thread_createPP3TCBPFvPvES2_>
    for (int i = 0; i < threadNum; i++) {
    80003f1c:	00000493          	li	s1,0
    80003f20:	0280006f          	j	80003f48 <_Z22producerConsumer_C_APIv+0x1ec>
        thread_create(threads + i,
    80003f24:	00000597          	auipc	a1,0x0
    80003f28:	c1458593          	addi	a1,a1,-1004 # 80003b38 <_ZL16producerKeyboardPv>
                      data + i);
    80003f2c:	00179613          	slli	a2,a5,0x1
    80003f30:	00f60633          	add	a2,a2,a5
    80003f34:	00361613          	slli	a2,a2,0x3
        thread_create(threads + i,
    80003f38:	00c98633          	add	a2,s3,a2
    80003f3c:	ffffd097          	auipc	ra,0xffffd
    80003f40:	6a4080e7          	jalr	1700(ra) # 800015e0 <_Z13thread_createPP3TCBPFvPvES2_>
    for (int i = 0; i < threadNum; i++) {
    80003f44:	0014849b          	addiw	s1,s1,1
    80003f48:	0524d263          	bge	s1,s2,80003f8c <_Z22producerConsumer_C_APIv+0x230>
        data[i].id = i;
    80003f4c:	00149793          	slli	a5,s1,0x1
    80003f50:	009787b3          	add	a5,a5,s1
    80003f54:	00379793          	slli	a5,a5,0x3
    80003f58:	00f987b3          	add	a5,s3,a5
    80003f5c:	0097a023          	sw	s1,0(a5)
        data[i].buffer = buffer;
    80003f60:	0147b423          	sd	s4,8(a5)
        data[i].wait = waitForAll;
    80003f64:	00009717          	auipc	a4,0x9
    80003f68:	dcc73703          	ld	a4,-564(a4) # 8000cd30 <_ZL10waitForAll>
    80003f6c:	00e7b823          	sd	a4,16(a5)
        thread_create(threads + i,
    80003f70:	00048793          	mv	a5,s1
    80003f74:	00349513          	slli	a0,s1,0x3
    80003f78:	00aa8533          	add	a0,s5,a0
    80003f7c:	fa9054e3          	blez	s1,80003f24 <_Z22producerConsumer_C_APIv+0x1c8>
    80003f80:	00000597          	auipc	a1,0x0
    80003f84:	c6858593          	addi	a1,a1,-920 # 80003be8 <_ZL8producerPv>
    80003f88:	fa5ff06f          	j	80003f2c <_Z22producerConsumer_C_APIv+0x1d0>
    thread_dispatch();
    80003f8c:	ffffd097          	auipc	ra,0xffffd
    80003f90:	75c080e7          	jalr	1884(ra) # 800016e8 <_Z15thread_dispatchv>
    for (int i = 0; i <= threadNum; i++) {
    80003f94:	00000493          	li	s1,0
    80003f98:	00994e63          	blt	s2,s1,80003fb4 <_Z22producerConsumer_C_APIv+0x258>
        sem_wait(waitForAll);
    80003f9c:	00009517          	auipc	a0,0x9
    80003fa0:	d9453503          	ld	a0,-620(a0) # 8000cd30 <_ZL10waitForAll>
    80003fa4:	ffffe097          	auipc	ra,0xffffe
    80003fa8:	814080e7          	jalr	-2028(ra) # 800017b8 <_Z8sem_waitP4_sem>
    for (int i = 0; i <= threadNum; i++) {
    80003fac:	0014849b          	addiw	s1,s1,1
    80003fb0:	fe9ff06f          	j	80003f98 <_Z22producerConsumer_C_APIv+0x23c>
    sem_close(waitForAll);
    80003fb4:	00009517          	auipc	a0,0x9
    80003fb8:	d7c53503          	ld	a0,-644(a0) # 8000cd30 <_ZL10waitForAll>
    80003fbc:	ffffd097          	auipc	ra,0xffffd
    80003fc0:	7c4080e7          	jalr	1988(ra) # 80001780 <_Z9sem_closeP4_sem>
    delete buffer;
    80003fc4:	000a0e63          	beqz	s4,80003fe0 <_Z22producerConsumer_C_APIv+0x284>
    80003fc8:	000a0513          	mv	a0,s4
    80003fcc:	00003097          	auipc	ra,0x3
    80003fd0:	154080e7          	jalr	340(ra) # 80007120 <_ZN6BufferD1Ev>
    80003fd4:	000a0513          	mv	a0,s4
    80003fd8:	ffffe097          	auipc	ra,0xffffe
    80003fdc:	e40080e7          	jalr	-448(ra) # 80001e18 <_ZdlPv>
    80003fe0:	000b0113          	mv	sp,s6

}
    80003fe4:	f9040113          	addi	sp,s0,-112
    80003fe8:	06813083          	ld	ra,104(sp)
    80003fec:	06013403          	ld	s0,96(sp)
    80003ff0:	05813483          	ld	s1,88(sp)
    80003ff4:	05013903          	ld	s2,80(sp)
    80003ff8:	04813983          	ld	s3,72(sp)
    80003ffc:	04013a03          	ld	s4,64(sp)
    80004000:	03813a83          	ld	s5,56(sp)
    80004004:	03013b03          	ld	s6,48(sp)
    80004008:	07010113          	addi	sp,sp,112
    8000400c:	00008067          	ret
    80004010:	00050493          	mv	s1,a0
    Buffer *buffer = new Buffer(n);
    80004014:	000a0513          	mv	a0,s4
    80004018:	ffffe097          	auipc	ra,0xffffe
    8000401c:	e00080e7          	jalr	-512(ra) # 80001e18 <_ZdlPv>
    80004020:	00048513          	mv	a0,s1
    80004024:	0000a097          	auipc	ra,0xa
    80004028:	e24080e7          	jalr	-476(ra) # 8000de48 <_Unwind_Resume>

000000008000402c <_ZL9fibonaccim>:
static volatile bool finishedA = false;
static volatile bool finishedB = false;
static volatile bool finishedC = false;
static volatile bool finishedD = false;

static uint64 fibonacci(uint64 n) {
    8000402c:	fe010113          	addi	sp,sp,-32
    80004030:	00113c23          	sd	ra,24(sp)
    80004034:	00813823          	sd	s0,16(sp)
    80004038:	00913423          	sd	s1,8(sp)
    8000403c:	01213023          	sd	s2,0(sp)
    80004040:	02010413          	addi	s0,sp,32
    80004044:	00050493          	mv	s1,a0
    if (n == 0 || n == 1) { return n; }
    80004048:	00100793          	li	a5,1
    8000404c:	02a7f863          	bgeu	a5,a0,8000407c <_ZL9fibonaccim+0x50>
    if (n % 10 == 0) { thread_dispatch(); }
    80004050:	00a00793          	li	a5,10
    80004054:	02f577b3          	remu	a5,a0,a5
    80004058:	02078e63          	beqz	a5,80004094 <_ZL9fibonaccim+0x68>
    return fibonacci(n - 1) + fibonacci(n - 2);
    8000405c:	fff48513          	addi	a0,s1,-1
    80004060:	00000097          	auipc	ra,0x0
    80004064:	fcc080e7          	jalr	-52(ra) # 8000402c <_ZL9fibonaccim>
    80004068:	00050913          	mv	s2,a0
    8000406c:	ffe48513          	addi	a0,s1,-2
    80004070:	00000097          	auipc	ra,0x0
    80004074:	fbc080e7          	jalr	-68(ra) # 8000402c <_ZL9fibonaccim>
    80004078:	00a90533          	add	a0,s2,a0
}
    8000407c:	01813083          	ld	ra,24(sp)
    80004080:	01013403          	ld	s0,16(sp)
    80004084:	00813483          	ld	s1,8(sp)
    80004088:	00013903          	ld	s2,0(sp)
    8000408c:	02010113          	addi	sp,sp,32
    80004090:	00008067          	ret
    if (n % 10 == 0) { thread_dispatch(); }
    80004094:	ffffd097          	auipc	ra,0xffffd
    80004098:	654080e7          	jalr	1620(ra) # 800016e8 <_Z15thread_dispatchv>
    8000409c:	fc1ff06f          	j	8000405c <_ZL9fibonaccim+0x30>

00000000800040a0 <_ZN7WorkerA11workerBodyAEPv>:
    void run() override {
        workerBodyD(nullptr);
    }
};

void WorkerA::workerBodyA(void *arg) {
    800040a0:	fe010113          	addi	sp,sp,-32
    800040a4:	00113c23          	sd	ra,24(sp)
    800040a8:	00813823          	sd	s0,16(sp)
    800040ac:	00913423          	sd	s1,8(sp)
    800040b0:	01213023          	sd	s2,0(sp)
    800040b4:	02010413          	addi	s0,sp,32
    for (uint64 i = 0; i < 10; i++) {
    800040b8:	00000913          	li	s2,0
    800040bc:	0380006f          	j	800040f4 <_ZN7WorkerA11workerBodyAEPv+0x54>
        printString("A: i="); printInt(i); printString("\n");
        for (uint64 j = 0; j < 10000; j++) {
            for (uint64 k = 0; k < 30000; k++) { /* busy wait */ }
            thread_dispatch();
    800040c0:	ffffd097          	auipc	ra,0xffffd
    800040c4:	628080e7          	jalr	1576(ra) # 800016e8 <_Z15thread_dispatchv>
        for (uint64 j = 0; j < 10000; j++) {
    800040c8:	00148493          	addi	s1,s1,1
    800040cc:	000027b7          	lui	a5,0x2
    800040d0:	70f78793          	addi	a5,a5,1807 # 270f <_entry-0x7fffd8f1>
    800040d4:	0097ee63          	bltu	a5,s1,800040f0 <_ZN7WorkerA11workerBodyAEPv+0x50>
            for (uint64 k = 0; k < 30000; k++) { /* busy wait */ }
    800040d8:	00000713          	li	a4,0
    800040dc:	000077b7          	lui	a5,0x7
    800040e0:	52f78793          	addi	a5,a5,1327 # 752f <_entry-0x7fff8ad1>
    800040e4:	fce7eee3          	bltu	a5,a4,800040c0 <_ZN7WorkerA11workerBodyAEPv+0x20>
    800040e8:	00170713          	addi	a4,a4,1
    800040ec:	ff1ff06f          	j	800040dc <_ZN7WorkerA11workerBodyAEPv+0x3c>
    for (uint64 i = 0; i < 10; i++) {
    800040f0:	00190913          	addi	s2,s2,1
    800040f4:	00900793          	li	a5,9
    800040f8:	0527e063          	bltu	a5,s2,80004138 <_ZN7WorkerA11workerBodyAEPv+0x98>
        printString("A: i="); printInt(i); printString("\n");
    800040fc:	00006517          	auipc	a0,0x6
    80004100:	09c50513          	addi	a0,a0,156 # 8000a198 <CONSOLE_STATUS+0x188>
    80004104:	00002097          	auipc	ra,0x2
    80004108:	eac080e7          	jalr	-340(ra) # 80005fb0 <_Z11printStringPKc>
    8000410c:	00000613          	li	a2,0
    80004110:	00a00593          	li	a1,10
    80004114:	0009051b          	sext.w	a0,s2
    80004118:	00002097          	auipc	ra,0x2
    8000411c:	048080e7          	jalr	72(ra) # 80006160 <_Z8printIntiii>
    80004120:	00006517          	auipc	a0,0x6
    80004124:	2c850513          	addi	a0,a0,712 # 8000a3e8 <CONSOLE_STATUS+0x3d8>
    80004128:	00002097          	auipc	ra,0x2
    8000412c:	e88080e7          	jalr	-376(ra) # 80005fb0 <_Z11printStringPKc>
        for (uint64 j = 0; j < 10000; j++) {
    80004130:	00000493          	li	s1,0
    80004134:	f99ff06f          	j	800040cc <_ZN7WorkerA11workerBodyAEPv+0x2c>
        }
    }
    printString("A finished!\n");
    80004138:	00006517          	auipc	a0,0x6
    8000413c:	06850513          	addi	a0,a0,104 # 8000a1a0 <CONSOLE_STATUS+0x190>
    80004140:	00002097          	auipc	ra,0x2
    80004144:	e70080e7          	jalr	-400(ra) # 80005fb0 <_Z11printStringPKc>
    finishedA = true;
    80004148:	00100793          	li	a5,1
    8000414c:	00009717          	auipc	a4,0x9
    80004150:	bef70623          	sb	a5,-1044(a4) # 8000cd38 <_ZL9finishedA>
}
    80004154:	01813083          	ld	ra,24(sp)
    80004158:	01013403          	ld	s0,16(sp)
    8000415c:	00813483          	ld	s1,8(sp)
    80004160:	00013903          	ld	s2,0(sp)
    80004164:	02010113          	addi	sp,sp,32
    80004168:	00008067          	ret

000000008000416c <_ZN7WorkerB11workerBodyBEPv>:

void WorkerB::workerBodyB(void *arg) {
    8000416c:	fe010113          	addi	sp,sp,-32
    80004170:	00113c23          	sd	ra,24(sp)
    80004174:	00813823          	sd	s0,16(sp)
    80004178:	00913423          	sd	s1,8(sp)
    8000417c:	01213023          	sd	s2,0(sp)
    80004180:	02010413          	addi	s0,sp,32
    for (uint64 i = 0; i < 16; i++) {
    80004184:	00000913          	li	s2,0
    80004188:	0380006f          	j	800041c0 <_ZN7WorkerB11workerBodyBEPv+0x54>
        printString("B: i="); printInt(i); printString("\n");
        for (uint64 j = 0; j < 10000; j++) {
            for (uint64 k = 0; k < 30000; k++) { /* busy wait */ }
            thread_dispatch();
    8000418c:	ffffd097          	auipc	ra,0xffffd
    80004190:	55c080e7          	jalr	1372(ra) # 800016e8 <_Z15thread_dispatchv>
        for (uint64 j = 0; j < 10000; j++) {
    80004194:	00148493          	addi	s1,s1,1
    80004198:	000027b7          	lui	a5,0x2
    8000419c:	70f78793          	addi	a5,a5,1807 # 270f <_entry-0x7fffd8f1>
    800041a0:	0097ee63          	bltu	a5,s1,800041bc <_ZN7WorkerB11workerBodyBEPv+0x50>
            for (uint64 k = 0; k < 30000; k++) { /* busy wait */ }
    800041a4:	00000713          	li	a4,0
    800041a8:	000077b7          	lui	a5,0x7
    800041ac:	52f78793          	addi	a5,a5,1327 # 752f <_entry-0x7fff8ad1>
    800041b0:	fce7eee3          	bltu	a5,a4,8000418c <_ZN7WorkerB11workerBodyBEPv+0x20>
    800041b4:	00170713          	addi	a4,a4,1
    800041b8:	ff1ff06f          	j	800041a8 <_ZN7WorkerB11workerBodyBEPv+0x3c>
    for (uint64 i = 0; i < 16; i++) {
    800041bc:	00190913          	addi	s2,s2,1
    800041c0:	00f00793          	li	a5,15
    800041c4:	0527e063          	bltu	a5,s2,80004204 <_ZN7WorkerB11workerBodyBEPv+0x98>
        printString("B: i="); printInt(i); printString("\n");
    800041c8:	00006517          	auipc	a0,0x6
    800041cc:	fe850513          	addi	a0,a0,-24 # 8000a1b0 <CONSOLE_STATUS+0x1a0>
    800041d0:	00002097          	auipc	ra,0x2
    800041d4:	de0080e7          	jalr	-544(ra) # 80005fb0 <_Z11printStringPKc>
    800041d8:	00000613          	li	a2,0
    800041dc:	00a00593          	li	a1,10
    800041e0:	0009051b          	sext.w	a0,s2
    800041e4:	00002097          	auipc	ra,0x2
    800041e8:	f7c080e7          	jalr	-132(ra) # 80006160 <_Z8printIntiii>
    800041ec:	00006517          	auipc	a0,0x6
    800041f0:	1fc50513          	addi	a0,a0,508 # 8000a3e8 <CONSOLE_STATUS+0x3d8>
    800041f4:	00002097          	auipc	ra,0x2
    800041f8:	dbc080e7          	jalr	-580(ra) # 80005fb0 <_Z11printStringPKc>
        for (uint64 j = 0; j < 10000; j++) {
    800041fc:	00000493          	li	s1,0
    80004200:	f99ff06f          	j	80004198 <_ZN7WorkerB11workerBodyBEPv+0x2c>
        }
    }
    printString("B finished!\n");
    80004204:	00006517          	auipc	a0,0x6
    80004208:	fb450513          	addi	a0,a0,-76 # 8000a1b8 <CONSOLE_STATUS+0x1a8>
    8000420c:	00002097          	auipc	ra,0x2
    80004210:	da4080e7          	jalr	-604(ra) # 80005fb0 <_Z11printStringPKc>
    finishedB = true;
    80004214:	00100793          	li	a5,1
    80004218:	00009717          	auipc	a4,0x9
    8000421c:	b2f700a3          	sb	a5,-1247(a4) # 8000cd39 <_ZL9finishedB>
    thread_dispatch();
    80004220:	ffffd097          	auipc	ra,0xffffd
    80004224:	4c8080e7          	jalr	1224(ra) # 800016e8 <_Z15thread_dispatchv>
}
    80004228:	01813083          	ld	ra,24(sp)
    8000422c:	01013403          	ld	s0,16(sp)
    80004230:	00813483          	ld	s1,8(sp)
    80004234:	00013903          	ld	s2,0(sp)
    80004238:	02010113          	addi	sp,sp,32
    8000423c:	00008067          	ret

0000000080004240 <_ZN7WorkerC11workerBodyCEPv>:

void WorkerC::workerBodyC(void *arg) {
    80004240:	fe010113          	addi	sp,sp,-32
    80004244:	00113c23          	sd	ra,24(sp)
    80004248:	00813823          	sd	s0,16(sp)
    8000424c:	00913423          	sd	s1,8(sp)
    80004250:	01213023          	sd	s2,0(sp)
    80004254:	02010413          	addi	s0,sp,32
    uint8 i = 0;
    80004258:	00000493          	li	s1,0
    8000425c:	0400006f          	j	8000429c <_ZN7WorkerC11workerBodyCEPv+0x5c>
    for (; i < 3; i++) {
        printString("C: i="); printInt(i); printString("\n");
    80004260:	00006517          	auipc	a0,0x6
    80004264:	f6850513          	addi	a0,a0,-152 # 8000a1c8 <CONSOLE_STATUS+0x1b8>
    80004268:	00002097          	auipc	ra,0x2
    8000426c:	d48080e7          	jalr	-696(ra) # 80005fb0 <_Z11printStringPKc>
    80004270:	00000613          	li	a2,0
    80004274:	00a00593          	li	a1,10
    80004278:	00048513          	mv	a0,s1
    8000427c:	00002097          	auipc	ra,0x2
    80004280:	ee4080e7          	jalr	-284(ra) # 80006160 <_Z8printIntiii>
    80004284:	00006517          	auipc	a0,0x6
    80004288:	16450513          	addi	a0,a0,356 # 8000a3e8 <CONSOLE_STATUS+0x3d8>
    8000428c:	00002097          	auipc	ra,0x2
    80004290:	d24080e7          	jalr	-732(ra) # 80005fb0 <_Z11printStringPKc>
    for (; i < 3; i++) {
    80004294:	0014849b          	addiw	s1,s1,1
    80004298:	0ff4f493          	andi	s1,s1,255
    8000429c:	00200793          	li	a5,2
    800042a0:	fc97f0e3          	bgeu	a5,s1,80004260 <_ZN7WorkerC11workerBodyCEPv+0x20>
    }

    printString("C: dispatch\n");
    800042a4:	00006517          	auipc	a0,0x6
    800042a8:	f2c50513          	addi	a0,a0,-212 # 8000a1d0 <CONSOLE_STATUS+0x1c0>
    800042ac:	00002097          	auipc	ra,0x2
    800042b0:	d04080e7          	jalr	-764(ra) # 80005fb0 <_Z11printStringPKc>
    __asm__ ("li t1, 7");
    800042b4:	00700313          	li	t1,7
    thread_dispatch();
    800042b8:	ffffd097          	auipc	ra,0xffffd
    800042bc:	430080e7          	jalr	1072(ra) # 800016e8 <_Z15thread_dispatchv>

    uint64 t1 = 0;
    __asm__ ("mv %[t1], t1" : [t1] "=r"(t1));
    800042c0:	00030913          	mv	s2,t1

    printString("C: t1="); printInt(t1); printString("\n");
    800042c4:	00006517          	auipc	a0,0x6
    800042c8:	f1c50513          	addi	a0,a0,-228 # 8000a1e0 <CONSOLE_STATUS+0x1d0>
    800042cc:	00002097          	auipc	ra,0x2
    800042d0:	ce4080e7          	jalr	-796(ra) # 80005fb0 <_Z11printStringPKc>
    800042d4:	00000613          	li	a2,0
    800042d8:	00a00593          	li	a1,10
    800042dc:	0009051b          	sext.w	a0,s2
    800042e0:	00002097          	auipc	ra,0x2
    800042e4:	e80080e7          	jalr	-384(ra) # 80006160 <_Z8printIntiii>
    800042e8:	00006517          	auipc	a0,0x6
    800042ec:	10050513          	addi	a0,a0,256 # 8000a3e8 <CONSOLE_STATUS+0x3d8>
    800042f0:	00002097          	auipc	ra,0x2
    800042f4:	cc0080e7          	jalr	-832(ra) # 80005fb0 <_Z11printStringPKc>

    uint64 result = fibonacci(12);
    800042f8:	00c00513          	li	a0,12
    800042fc:	00000097          	auipc	ra,0x0
    80004300:	d30080e7          	jalr	-720(ra) # 8000402c <_ZL9fibonaccim>
    80004304:	00050913          	mv	s2,a0
    printString("C: fibonaci="); printInt(result); printString("\n");
    80004308:	00006517          	auipc	a0,0x6
    8000430c:	ee050513          	addi	a0,a0,-288 # 8000a1e8 <CONSOLE_STATUS+0x1d8>
    80004310:	00002097          	auipc	ra,0x2
    80004314:	ca0080e7          	jalr	-864(ra) # 80005fb0 <_Z11printStringPKc>
    80004318:	00000613          	li	a2,0
    8000431c:	00a00593          	li	a1,10
    80004320:	0009051b          	sext.w	a0,s2
    80004324:	00002097          	auipc	ra,0x2
    80004328:	e3c080e7          	jalr	-452(ra) # 80006160 <_Z8printIntiii>
    8000432c:	00006517          	auipc	a0,0x6
    80004330:	0bc50513          	addi	a0,a0,188 # 8000a3e8 <CONSOLE_STATUS+0x3d8>
    80004334:	00002097          	auipc	ra,0x2
    80004338:	c7c080e7          	jalr	-900(ra) # 80005fb0 <_Z11printStringPKc>
    8000433c:	0400006f          	j	8000437c <_ZN7WorkerC11workerBodyCEPv+0x13c>

    for (; i < 6; i++) {
        printString("C: i="); printInt(i); printString("\n");
    80004340:	00006517          	auipc	a0,0x6
    80004344:	e8850513          	addi	a0,a0,-376 # 8000a1c8 <CONSOLE_STATUS+0x1b8>
    80004348:	00002097          	auipc	ra,0x2
    8000434c:	c68080e7          	jalr	-920(ra) # 80005fb0 <_Z11printStringPKc>
    80004350:	00000613          	li	a2,0
    80004354:	00a00593          	li	a1,10
    80004358:	00048513          	mv	a0,s1
    8000435c:	00002097          	auipc	ra,0x2
    80004360:	e04080e7          	jalr	-508(ra) # 80006160 <_Z8printIntiii>
    80004364:	00006517          	auipc	a0,0x6
    80004368:	08450513          	addi	a0,a0,132 # 8000a3e8 <CONSOLE_STATUS+0x3d8>
    8000436c:	00002097          	auipc	ra,0x2
    80004370:	c44080e7          	jalr	-956(ra) # 80005fb0 <_Z11printStringPKc>
    for (; i < 6; i++) {
    80004374:	0014849b          	addiw	s1,s1,1
    80004378:	0ff4f493          	andi	s1,s1,255
    8000437c:	00500793          	li	a5,5
    80004380:	fc97f0e3          	bgeu	a5,s1,80004340 <_ZN7WorkerC11workerBodyCEPv+0x100>
    }

    printString("A finished!\n");
    80004384:	00006517          	auipc	a0,0x6
    80004388:	e1c50513          	addi	a0,a0,-484 # 8000a1a0 <CONSOLE_STATUS+0x190>
    8000438c:	00002097          	auipc	ra,0x2
    80004390:	c24080e7          	jalr	-988(ra) # 80005fb0 <_Z11printStringPKc>
    finishedC = true;
    80004394:	00100793          	li	a5,1
    80004398:	00009717          	auipc	a4,0x9
    8000439c:	9af70123          	sb	a5,-1630(a4) # 8000cd3a <_ZL9finishedC>
    thread_dispatch();
    800043a0:	ffffd097          	auipc	ra,0xffffd
    800043a4:	348080e7          	jalr	840(ra) # 800016e8 <_Z15thread_dispatchv>
}
    800043a8:	01813083          	ld	ra,24(sp)
    800043ac:	01013403          	ld	s0,16(sp)
    800043b0:	00813483          	ld	s1,8(sp)
    800043b4:	00013903          	ld	s2,0(sp)
    800043b8:	02010113          	addi	sp,sp,32
    800043bc:	00008067          	ret

00000000800043c0 <_ZN7WorkerD11workerBodyDEPv>:

void WorkerD::workerBodyD(void* arg) {
    800043c0:	fe010113          	addi	sp,sp,-32
    800043c4:	00113c23          	sd	ra,24(sp)
    800043c8:	00813823          	sd	s0,16(sp)
    800043cc:	00913423          	sd	s1,8(sp)
    800043d0:	01213023          	sd	s2,0(sp)
    800043d4:	02010413          	addi	s0,sp,32
    uint8 i = 10;
    800043d8:	00a00493          	li	s1,10
    800043dc:	0400006f          	j	8000441c <_ZN7WorkerD11workerBodyDEPv+0x5c>
    for (; i < 13; i++) {
        printString("D: i="); printInt(i); printString("\n");
    800043e0:	00006517          	auipc	a0,0x6
    800043e4:	e1850513          	addi	a0,a0,-488 # 8000a1f8 <CONSOLE_STATUS+0x1e8>
    800043e8:	00002097          	auipc	ra,0x2
    800043ec:	bc8080e7          	jalr	-1080(ra) # 80005fb0 <_Z11printStringPKc>
    800043f0:	00000613          	li	a2,0
    800043f4:	00a00593          	li	a1,10
    800043f8:	00048513          	mv	a0,s1
    800043fc:	00002097          	auipc	ra,0x2
    80004400:	d64080e7          	jalr	-668(ra) # 80006160 <_Z8printIntiii>
    80004404:	00006517          	auipc	a0,0x6
    80004408:	fe450513          	addi	a0,a0,-28 # 8000a3e8 <CONSOLE_STATUS+0x3d8>
    8000440c:	00002097          	auipc	ra,0x2
    80004410:	ba4080e7          	jalr	-1116(ra) # 80005fb0 <_Z11printStringPKc>
    for (; i < 13; i++) {
    80004414:	0014849b          	addiw	s1,s1,1
    80004418:	0ff4f493          	andi	s1,s1,255
    8000441c:	00c00793          	li	a5,12
    80004420:	fc97f0e3          	bgeu	a5,s1,800043e0 <_ZN7WorkerD11workerBodyDEPv+0x20>
    }

    printString("D: dispatch\n");
    80004424:	00006517          	auipc	a0,0x6
    80004428:	ddc50513          	addi	a0,a0,-548 # 8000a200 <CONSOLE_STATUS+0x1f0>
    8000442c:	00002097          	auipc	ra,0x2
    80004430:	b84080e7          	jalr	-1148(ra) # 80005fb0 <_Z11printStringPKc>
    __asm__ ("li t1, 5");
    80004434:	00500313          	li	t1,5
    thread_dispatch();
    80004438:	ffffd097          	auipc	ra,0xffffd
    8000443c:	2b0080e7          	jalr	688(ra) # 800016e8 <_Z15thread_dispatchv>

    uint64 result = fibonacci(16);
    80004440:	01000513          	li	a0,16
    80004444:	00000097          	auipc	ra,0x0
    80004448:	be8080e7          	jalr	-1048(ra) # 8000402c <_ZL9fibonaccim>
    8000444c:	00050913          	mv	s2,a0
    printString("D: fibonaci="); printInt(result); printString("\n");
    80004450:	00006517          	auipc	a0,0x6
    80004454:	dc050513          	addi	a0,a0,-576 # 8000a210 <CONSOLE_STATUS+0x200>
    80004458:	00002097          	auipc	ra,0x2
    8000445c:	b58080e7          	jalr	-1192(ra) # 80005fb0 <_Z11printStringPKc>
    80004460:	00000613          	li	a2,0
    80004464:	00a00593          	li	a1,10
    80004468:	0009051b          	sext.w	a0,s2
    8000446c:	00002097          	auipc	ra,0x2
    80004470:	cf4080e7          	jalr	-780(ra) # 80006160 <_Z8printIntiii>
    80004474:	00006517          	auipc	a0,0x6
    80004478:	f7450513          	addi	a0,a0,-140 # 8000a3e8 <CONSOLE_STATUS+0x3d8>
    8000447c:	00002097          	auipc	ra,0x2
    80004480:	b34080e7          	jalr	-1228(ra) # 80005fb0 <_Z11printStringPKc>
    80004484:	0400006f          	j	800044c4 <_ZN7WorkerD11workerBodyDEPv+0x104>

    for (; i < 16; i++) {
        printString("D: i="); printInt(i); printString("\n");
    80004488:	00006517          	auipc	a0,0x6
    8000448c:	d7050513          	addi	a0,a0,-656 # 8000a1f8 <CONSOLE_STATUS+0x1e8>
    80004490:	00002097          	auipc	ra,0x2
    80004494:	b20080e7          	jalr	-1248(ra) # 80005fb0 <_Z11printStringPKc>
    80004498:	00000613          	li	a2,0
    8000449c:	00a00593          	li	a1,10
    800044a0:	00048513          	mv	a0,s1
    800044a4:	00002097          	auipc	ra,0x2
    800044a8:	cbc080e7          	jalr	-836(ra) # 80006160 <_Z8printIntiii>
    800044ac:	00006517          	auipc	a0,0x6
    800044b0:	f3c50513          	addi	a0,a0,-196 # 8000a3e8 <CONSOLE_STATUS+0x3d8>
    800044b4:	00002097          	auipc	ra,0x2
    800044b8:	afc080e7          	jalr	-1284(ra) # 80005fb0 <_Z11printStringPKc>
    for (; i < 16; i++) {
    800044bc:	0014849b          	addiw	s1,s1,1
    800044c0:	0ff4f493          	andi	s1,s1,255
    800044c4:	00f00793          	li	a5,15
    800044c8:	fc97f0e3          	bgeu	a5,s1,80004488 <_ZN7WorkerD11workerBodyDEPv+0xc8>
    }

    printString("D finished!\n");
    800044cc:	00006517          	auipc	a0,0x6
    800044d0:	d5450513          	addi	a0,a0,-684 # 8000a220 <CONSOLE_STATUS+0x210>
    800044d4:	00002097          	auipc	ra,0x2
    800044d8:	adc080e7          	jalr	-1316(ra) # 80005fb0 <_Z11printStringPKc>
    finishedD = true;
    800044dc:	00100793          	li	a5,1
    800044e0:	00009717          	auipc	a4,0x9
    800044e4:	84f70da3          	sb	a5,-1957(a4) # 8000cd3b <_ZL9finishedD>
    thread_dispatch();
    800044e8:	ffffd097          	auipc	ra,0xffffd
    800044ec:	200080e7          	jalr	512(ra) # 800016e8 <_Z15thread_dispatchv>
}
    800044f0:	01813083          	ld	ra,24(sp)
    800044f4:	01013403          	ld	s0,16(sp)
    800044f8:	00813483          	ld	s1,8(sp)
    800044fc:	00013903          	ld	s2,0(sp)
    80004500:	02010113          	addi	sp,sp,32
    80004504:	00008067          	ret

0000000080004508 <_Z20Threads_CPP_API_testv>:


void Threads_CPP_API_test() {
    80004508:	fc010113          	addi	sp,sp,-64
    8000450c:	02113c23          	sd	ra,56(sp)
    80004510:	02813823          	sd	s0,48(sp)
    80004514:	02913423          	sd	s1,40(sp)
    80004518:	03213023          	sd	s2,32(sp)
    8000451c:	04010413          	addi	s0,sp,64
    Thread* threads[4];

    threads[0] = new WorkerA();
    80004520:	02000513          	li	a0,32
    80004524:	ffffe097          	auipc	ra,0xffffe
    80004528:	8a4080e7          	jalr	-1884(ra) # 80001dc8 <_Znwm>
    8000452c:	00050493          	mv	s1,a0
    WorkerA():Thread() {}
    80004530:	ffffe097          	auipc	ra,0xffffe
    80004534:	a98080e7          	jalr	-1384(ra) # 80001fc8 <_ZN6ThreadC1Ev>
    80004538:	00008797          	auipc	a5,0x8
    8000453c:	52078793          	addi	a5,a5,1312 # 8000ca58 <_ZTV7WorkerA+0x10>
    80004540:	00f4b023          	sd	a5,0(s1)
    threads[0] = new WorkerA();
    80004544:	fc943023          	sd	s1,-64(s0)
    printString("ThreadA created\n");
    80004548:	00006517          	auipc	a0,0x6
    8000454c:	ce850513          	addi	a0,a0,-792 # 8000a230 <CONSOLE_STATUS+0x220>
    80004550:	00002097          	auipc	ra,0x2
    80004554:	a60080e7          	jalr	-1440(ra) # 80005fb0 <_Z11printStringPKc>

    threads[1] = new WorkerB();
    80004558:	02000513          	li	a0,32
    8000455c:	ffffe097          	auipc	ra,0xffffe
    80004560:	86c080e7          	jalr	-1940(ra) # 80001dc8 <_Znwm>
    80004564:	00050493          	mv	s1,a0
    WorkerB():Thread() {}
    80004568:	ffffe097          	auipc	ra,0xffffe
    8000456c:	a60080e7          	jalr	-1440(ra) # 80001fc8 <_ZN6ThreadC1Ev>
    80004570:	00008797          	auipc	a5,0x8
    80004574:	51078793          	addi	a5,a5,1296 # 8000ca80 <_ZTV7WorkerB+0x10>
    80004578:	00f4b023          	sd	a5,0(s1)
    threads[1] = new WorkerB();
    8000457c:	fc943423          	sd	s1,-56(s0)
    printString("ThreadB created\n");
    80004580:	00006517          	auipc	a0,0x6
    80004584:	cc850513          	addi	a0,a0,-824 # 8000a248 <CONSOLE_STATUS+0x238>
    80004588:	00002097          	auipc	ra,0x2
    8000458c:	a28080e7          	jalr	-1496(ra) # 80005fb0 <_Z11printStringPKc>

    threads[2] = new WorkerC();
    80004590:	02000513          	li	a0,32
    80004594:	ffffe097          	auipc	ra,0xffffe
    80004598:	834080e7          	jalr	-1996(ra) # 80001dc8 <_Znwm>
    8000459c:	00050493          	mv	s1,a0
    WorkerC():Thread() {}
    800045a0:	ffffe097          	auipc	ra,0xffffe
    800045a4:	a28080e7          	jalr	-1496(ra) # 80001fc8 <_ZN6ThreadC1Ev>
    800045a8:	00008797          	auipc	a5,0x8
    800045ac:	50078793          	addi	a5,a5,1280 # 8000caa8 <_ZTV7WorkerC+0x10>
    800045b0:	00f4b023          	sd	a5,0(s1)
    threads[2] = new WorkerC();
    800045b4:	fc943823          	sd	s1,-48(s0)
    printString("ThreadC created\n");
    800045b8:	00006517          	auipc	a0,0x6
    800045bc:	ca850513          	addi	a0,a0,-856 # 8000a260 <CONSOLE_STATUS+0x250>
    800045c0:	00002097          	auipc	ra,0x2
    800045c4:	9f0080e7          	jalr	-1552(ra) # 80005fb0 <_Z11printStringPKc>

    threads[3] = new WorkerD();
    800045c8:	02000513          	li	a0,32
    800045cc:	ffffd097          	auipc	ra,0xffffd
    800045d0:	7fc080e7          	jalr	2044(ra) # 80001dc8 <_Znwm>
    800045d4:	00050493          	mv	s1,a0
    WorkerD():Thread() {}
    800045d8:	ffffe097          	auipc	ra,0xffffe
    800045dc:	9f0080e7          	jalr	-1552(ra) # 80001fc8 <_ZN6ThreadC1Ev>
    800045e0:	00008797          	auipc	a5,0x8
    800045e4:	4f078793          	addi	a5,a5,1264 # 8000cad0 <_ZTV7WorkerD+0x10>
    800045e8:	00f4b023          	sd	a5,0(s1)
    threads[3] = new WorkerD();
    800045ec:	fc943c23          	sd	s1,-40(s0)
    printString("ThreadD created\n");
    800045f0:	00006517          	auipc	a0,0x6
    800045f4:	c8850513          	addi	a0,a0,-888 # 8000a278 <CONSOLE_STATUS+0x268>
    800045f8:	00002097          	auipc	ra,0x2
    800045fc:	9b8080e7          	jalr	-1608(ra) # 80005fb0 <_Z11printStringPKc>

    for(int i=0; i<4; i++) {
    80004600:	00000493          	li	s1,0
    80004604:	00300793          	li	a5,3
    80004608:	0297c663          	blt	a5,s1,80004634 <_Z20Threads_CPP_API_testv+0x12c>
        threads[i]->start();
    8000460c:	00349793          	slli	a5,s1,0x3
    80004610:	fe040713          	addi	a4,s0,-32
    80004614:	00f707b3          	add	a5,a4,a5
    80004618:	fe07b503          	ld	a0,-32(a5)
    8000461c:	ffffe097          	auipc	ra,0xffffe
    80004620:	8fc080e7          	jalr	-1796(ra) # 80001f18 <_ZN6Thread5startEv>
    for(int i=0; i<4; i++) {
    80004624:	0014849b          	addiw	s1,s1,1
    80004628:	fddff06f          	j	80004604 <_Z20Threads_CPP_API_testv+0xfc>
    }

    while (!(finishedA && finishedB && finishedC && finishedD)) {
        Thread::dispatch();
    8000462c:	ffffe097          	auipc	ra,0xffffe
    80004630:	94c080e7          	jalr	-1716(ra) # 80001f78 <_ZN6Thread8dispatchEv>
    while (!(finishedA && finishedB && finishedC && finishedD)) {
    80004634:	00008797          	auipc	a5,0x8
    80004638:	7047c783          	lbu	a5,1796(a5) # 8000cd38 <_ZL9finishedA>
    8000463c:	fe0788e3          	beqz	a5,8000462c <_Z20Threads_CPP_API_testv+0x124>
    80004640:	00008797          	auipc	a5,0x8
    80004644:	6f97c783          	lbu	a5,1785(a5) # 8000cd39 <_ZL9finishedB>
    80004648:	fe0782e3          	beqz	a5,8000462c <_Z20Threads_CPP_API_testv+0x124>
    8000464c:	00008797          	auipc	a5,0x8
    80004650:	6ee7c783          	lbu	a5,1774(a5) # 8000cd3a <_ZL9finishedC>
    80004654:	fc078ce3          	beqz	a5,8000462c <_Z20Threads_CPP_API_testv+0x124>
    80004658:	00008797          	auipc	a5,0x8
    8000465c:	6e37c783          	lbu	a5,1763(a5) # 8000cd3b <_ZL9finishedD>
    80004660:	fc0786e3          	beqz	a5,8000462c <_Z20Threads_CPP_API_testv+0x124>
    80004664:	fc040493          	addi	s1,s0,-64
    80004668:	0080006f          	j	80004670 <_Z20Threads_CPP_API_testv+0x168>
    }

    for (auto thread: threads) { delete thread; }
    8000466c:	00848493          	addi	s1,s1,8
    80004670:	fe040793          	addi	a5,s0,-32
    80004674:	08f48663          	beq	s1,a5,80004700 <_Z20Threads_CPP_API_testv+0x1f8>
    80004678:	0004b503          	ld	a0,0(s1)
    8000467c:	fe0508e3          	beqz	a0,8000466c <_Z20Threads_CPP_API_testv+0x164>
    80004680:	00053783          	ld	a5,0(a0)
    80004684:	0087b783          	ld	a5,8(a5)
    80004688:	000780e7          	jalr	a5
    8000468c:	fe1ff06f          	j	8000466c <_Z20Threads_CPP_API_testv+0x164>
    80004690:	00050913          	mv	s2,a0
    threads[0] = new WorkerA();
    80004694:	00048513          	mv	a0,s1
    80004698:	ffffd097          	auipc	ra,0xffffd
    8000469c:	780080e7          	jalr	1920(ra) # 80001e18 <_ZdlPv>
    800046a0:	00090513          	mv	a0,s2
    800046a4:	00009097          	auipc	ra,0x9
    800046a8:	7a4080e7          	jalr	1956(ra) # 8000de48 <_Unwind_Resume>
    800046ac:	00050913          	mv	s2,a0
    threads[1] = new WorkerB();
    800046b0:	00048513          	mv	a0,s1
    800046b4:	ffffd097          	auipc	ra,0xffffd
    800046b8:	764080e7          	jalr	1892(ra) # 80001e18 <_ZdlPv>
    800046bc:	00090513          	mv	a0,s2
    800046c0:	00009097          	auipc	ra,0x9
    800046c4:	788080e7          	jalr	1928(ra) # 8000de48 <_Unwind_Resume>
    800046c8:	00050913          	mv	s2,a0
    threads[2] = new WorkerC();
    800046cc:	00048513          	mv	a0,s1
    800046d0:	ffffd097          	auipc	ra,0xffffd
    800046d4:	748080e7          	jalr	1864(ra) # 80001e18 <_ZdlPv>
    800046d8:	00090513          	mv	a0,s2
    800046dc:	00009097          	auipc	ra,0x9
    800046e0:	76c080e7          	jalr	1900(ra) # 8000de48 <_Unwind_Resume>
    800046e4:	00050913          	mv	s2,a0
    threads[3] = new WorkerD();
    800046e8:	00048513          	mv	a0,s1
    800046ec:	ffffd097          	auipc	ra,0xffffd
    800046f0:	72c080e7          	jalr	1836(ra) # 80001e18 <_ZdlPv>
    800046f4:	00090513          	mv	a0,s2
    800046f8:	00009097          	auipc	ra,0x9
    800046fc:	750080e7          	jalr	1872(ra) # 8000de48 <_Unwind_Resume>
}
    80004700:	03813083          	ld	ra,56(sp)
    80004704:	03013403          	ld	s0,48(sp)
    80004708:	02813483          	ld	s1,40(sp)
    8000470c:	02013903          	ld	s2,32(sp)
    80004710:	04010113          	addi	sp,sp,64
    80004714:	00008067          	ret

0000000080004718 <_ZN7WorkerAD1Ev>:
class WorkerA: public Thread {
    80004718:	ff010113          	addi	sp,sp,-16
    8000471c:	00113423          	sd	ra,8(sp)
    80004720:	00813023          	sd	s0,0(sp)
    80004724:	01010413          	addi	s0,sp,16
    80004728:	00008797          	auipc	a5,0x8
    8000472c:	33078793          	addi	a5,a5,816 # 8000ca58 <_ZTV7WorkerA+0x10>
    80004730:	00f53023          	sd	a5,0(a0)
    80004734:	ffffd097          	auipc	ra,0xffffd
    80004738:	5ec080e7          	jalr	1516(ra) # 80001d20 <_ZN6ThreadD1Ev>
    8000473c:	00813083          	ld	ra,8(sp)
    80004740:	00013403          	ld	s0,0(sp)
    80004744:	01010113          	addi	sp,sp,16
    80004748:	00008067          	ret

000000008000474c <_ZN7WorkerAD0Ev>:
    8000474c:	fe010113          	addi	sp,sp,-32
    80004750:	00113c23          	sd	ra,24(sp)
    80004754:	00813823          	sd	s0,16(sp)
    80004758:	00913423          	sd	s1,8(sp)
    8000475c:	02010413          	addi	s0,sp,32
    80004760:	00050493          	mv	s1,a0
    80004764:	00008797          	auipc	a5,0x8
    80004768:	2f478793          	addi	a5,a5,756 # 8000ca58 <_ZTV7WorkerA+0x10>
    8000476c:	00f53023          	sd	a5,0(a0)
    80004770:	ffffd097          	auipc	ra,0xffffd
    80004774:	5b0080e7          	jalr	1456(ra) # 80001d20 <_ZN6ThreadD1Ev>
    80004778:	00048513          	mv	a0,s1
    8000477c:	ffffd097          	auipc	ra,0xffffd
    80004780:	69c080e7          	jalr	1692(ra) # 80001e18 <_ZdlPv>
    80004784:	01813083          	ld	ra,24(sp)
    80004788:	01013403          	ld	s0,16(sp)
    8000478c:	00813483          	ld	s1,8(sp)
    80004790:	02010113          	addi	sp,sp,32
    80004794:	00008067          	ret

0000000080004798 <_ZN7WorkerBD1Ev>:
class WorkerB: public Thread {
    80004798:	ff010113          	addi	sp,sp,-16
    8000479c:	00113423          	sd	ra,8(sp)
    800047a0:	00813023          	sd	s0,0(sp)
    800047a4:	01010413          	addi	s0,sp,16
    800047a8:	00008797          	auipc	a5,0x8
    800047ac:	2d878793          	addi	a5,a5,728 # 8000ca80 <_ZTV7WorkerB+0x10>
    800047b0:	00f53023          	sd	a5,0(a0)
    800047b4:	ffffd097          	auipc	ra,0xffffd
    800047b8:	56c080e7          	jalr	1388(ra) # 80001d20 <_ZN6ThreadD1Ev>
    800047bc:	00813083          	ld	ra,8(sp)
    800047c0:	00013403          	ld	s0,0(sp)
    800047c4:	01010113          	addi	sp,sp,16
    800047c8:	00008067          	ret

00000000800047cc <_ZN7WorkerBD0Ev>:
    800047cc:	fe010113          	addi	sp,sp,-32
    800047d0:	00113c23          	sd	ra,24(sp)
    800047d4:	00813823          	sd	s0,16(sp)
    800047d8:	00913423          	sd	s1,8(sp)
    800047dc:	02010413          	addi	s0,sp,32
    800047e0:	00050493          	mv	s1,a0
    800047e4:	00008797          	auipc	a5,0x8
    800047e8:	29c78793          	addi	a5,a5,668 # 8000ca80 <_ZTV7WorkerB+0x10>
    800047ec:	00f53023          	sd	a5,0(a0)
    800047f0:	ffffd097          	auipc	ra,0xffffd
    800047f4:	530080e7          	jalr	1328(ra) # 80001d20 <_ZN6ThreadD1Ev>
    800047f8:	00048513          	mv	a0,s1
    800047fc:	ffffd097          	auipc	ra,0xffffd
    80004800:	61c080e7          	jalr	1564(ra) # 80001e18 <_ZdlPv>
    80004804:	01813083          	ld	ra,24(sp)
    80004808:	01013403          	ld	s0,16(sp)
    8000480c:	00813483          	ld	s1,8(sp)
    80004810:	02010113          	addi	sp,sp,32
    80004814:	00008067          	ret

0000000080004818 <_ZN7WorkerCD1Ev>:
class WorkerC: public Thread {
    80004818:	ff010113          	addi	sp,sp,-16
    8000481c:	00113423          	sd	ra,8(sp)
    80004820:	00813023          	sd	s0,0(sp)
    80004824:	01010413          	addi	s0,sp,16
    80004828:	00008797          	auipc	a5,0x8
    8000482c:	28078793          	addi	a5,a5,640 # 8000caa8 <_ZTV7WorkerC+0x10>
    80004830:	00f53023          	sd	a5,0(a0)
    80004834:	ffffd097          	auipc	ra,0xffffd
    80004838:	4ec080e7          	jalr	1260(ra) # 80001d20 <_ZN6ThreadD1Ev>
    8000483c:	00813083          	ld	ra,8(sp)
    80004840:	00013403          	ld	s0,0(sp)
    80004844:	01010113          	addi	sp,sp,16
    80004848:	00008067          	ret

000000008000484c <_ZN7WorkerCD0Ev>:
    8000484c:	fe010113          	addi	sp,sp,-32
    80004850:	00113c23          	sd	ra,24(sp)
    80004854:	00813823          	sd	s0,16(sp)
    80004858:	00913423          	sd	s1,8(sp)
    8000485c:	02010413          	addi	s0,sp,32
    80004860:	00050493          	mv	s1,a0
    80004864:	00008797          	auipc	a5,0x8
    80004868:	24478793          	addi	a5,a5,580 # 8000caa8 <_ZTV7WorkerC+0x10>
    8000486c:	00f53023          	sd	a5,0(a0)
    80004870:	ffffd097          	auipc	ra,0xffffd
    80004874:	4b0080e7          	jalr	1200(ra) # 80001d20 <_ZN6ThreadD1Ev>
    80004878:	00048513          	mv	a0,s1
    8000487c:	ffffd097          	auipc	ra,0xffffd
    80004880:	59c080e7          	jalr	1436(ra) # 80001e18 <_ZdlPv>
    80004884:	01813083          	ld	ra,24(sp)
    80004888:	01013403          	ld	s0,16(sp)
    8000488c:	00813483          	ld	s1,8(sp)
    80004890:	02010113          	addi	sp,sp,32
    80004894:	00008067          	ret

0000000080004898 <_ZN7WorkerDD1Ev>:
class WorkerD: public Thread {
    80004898:	ff010113          	addi	sp,sp,-16
    8000489c:	00113423          	sd	ra,8(sp)
    800048a0:	00813023          	sd	s0,0(sp)
    800048a4:	01010413          	addi	s0,sp,16
    800048a8:	00008797          	auipc	a5,0x8
    800048ac:	22878793          	addi	a5,a5,552 # 8000cad0 <_ZTV7WorkerD+0x10>
    800048b0:	00f53023          	sd	a5,0(a0)
    800048b4:	ffffd097          	auipc	ra,0xffffd
    800048b8:	46c080e7          	jalr	1132(ra) # 80001d20 <_ZN6ThreadD1Ev>
    800048bc:	00813083          	ld	ra,8(sp)
    800048c0:	00013403          	ld	s0,0(sp)
    800048c4:	01010113          	addi	sp,sp,16
    800048c8:	00008067          	ret

00000000800048cc <_ZN7WorkerDD0Ev>:
    800048cc:	fe010113          	addi	sp,sp,-32
    800048d0:	00113c23          	sd	ra,24(sp)
    800048d4:	00813823          	sd	s0,16(sp)
    800048d8:	00913423          	sd	s1,8(sp)
    800048dc:	02010413          	addi	s0,sp,32
    800048e0:	00050493          	mv	s1,a0
    800048e4:	00008797          	auipc	a5,0x8
    800048e8:	1ec78793          	addi	a5,a5,492 # 8000cad0 <_ZTV7WorkerD+0x10>
    800048ec:	00f53023          	sd	a5,0(a0)
    800048f0:	ffffd097          	auipc	ra,0xffffd
    800048f4:	430080e7          	jalr	1072(ra) # 80001d20 <_ZN6ThreadD1Ev>
    800048f8:	00048513          	mv	a0,s1
    800048fc:	ffffd097          	auipc	ra,0xffffd
    80004900:	51c080e7          	jalr	1308(ra) # 80001e18 <_ZdlPv>
    80004904:	01813083          	ld	ra,24(sp)
    80004908:	01013403          	ld	s0,16(sp)
    8000490c:	00813483          	ld	s1,8(sp)
    80004910:	02010113          	addi	sp,sp,32
    80004914:	00008067          	ret

0000000080004918 <_ZN7WorkerA3runEv>:
    void run() override {
    80004918:	ff010113          	addi	sp,sp,-16
    8000491c:	00113423          	sd	ra,8(sp)
    80004920:	00813023          	sd	s0,0(sp)
    80004924:	01010413          	addi	s0,sp,16
        workerBodyA(nullptr);
    80004928:	00000593          	li	a1,0
    8000492c:	fffff097          	auipc	ra,0xfffff
    80004930:	774080e7          	jalr	1908(ra) # 800040a0 <_ZN7WorkerA11workerBodyAEPv>
    }
    80004934:	00813083          	ld	ra,8(sp)
    80004938:	00013403          	ld	s0,0(sp)
    8000493c:	01010113          	addi	sp,sp,16
    80004940:	00008067          	ret

0000000080004944 <_ZN7WorkerB3runEv>:
    void run() override {
    80004944:	ff010113          	addi	sp,sp,-16
    80004948:	00113423          	sd	ra,8(sp)
    8000494c:	00813023          	sd	s0,0(sp)
    80004950:	01010413          	addi	s0,sp,16
        workerBodyB(nullptr);
    80004954:	00000593          	li	a1,0
    80004958:	00000097          	auipc	ra,0x0
    8000495c:	814080e7          	jalr	-2028(ra) # 8000416c <_ZN7WorkerB11workerBodyBEPv>
    }
    80004960:	00813083          	ld	ra,8(sp)
    80004964:	00013403          	ld	s0,0(sp)
    80004968:	01010113          	addi	sp,sp,16
    8000496c:	00008067          	ret

0000000080004970 <_ZN7WorkerC3runEv>:
    void run() override {
    80004970:	ff010113          	addi	sp,sp,-16
    80004974:	00113423          	sd	ra,8(sp)
    80004978:	00813023          	sd	s0,0(sp)
    8000497c:	01010413          	addi	s0,sp,16
        workerBodyC(nullptr);
    80004980:	00000593          	li	a1,0
    80004984:	00000097          	auipc	ra,0x0
    80004988:	8bc080e7          	jalr	-1860(ra) # 80004240 <_ZN7WorkerC11workerBodyCEPv>
    }
    8000498c:	00813083          	ld	ra,8(sp)
    80004990:	00013403          	ld	s0,0(sp)
    80004994:	01010113          	addi	sp,sp,16
    80004998:	00008067          	ret

000000008000499c <_ZN7WorkerD3runEv>:
    void run() override {
    8000499c:	ff010113          	addi	sp,sp,-16
    800049a0:	00113423          	sd	ra,8(sp)
    800049a4:	00813023          	sd	s0,0(sp)
    800049a8:	01010413          	addi	s0,sp,16
        workerBodyD(nullptr);
    800049ac:	00000593          	li	a1,0
    800049b0:	00000097          	auipc	ra,0x0
    800049b4:	a10080e7          	jalr	-1520(ra) # 800043c0 <_ZN7WorkerD11workerBodyDEPv>
    }
    800049b8:	00813083          	ld	ra,8(sp)
    800049bc:	00013403          	ld	s0,0(sp)
    800049c0:	01010113          	addi	sp,sp,16
    800049c4:	00008067          	ret

00000000800049c8 <_Z20testConsumerProducerv>:

        td->sem->signal();
    }
};

void testConsumerProducer() {
    800049c8:	f8010113          	addi	sp,sp,-128
    800049cc:	06113c23          	sd	ra,120(sp)
    800049d0:	06813823          	sd	s0,112(sp)
    800049d4:	06913423          	sd	s1,104(sp)
    800049d8:	07213023          	sd	s2,96(sp)
    800049dc:	05313c23          	sd	s3,88(sp)
    800049e0:	05413823          	sd	s4,80(sp)
    800049e4:	05513423          	sd	s5,72(sp)
    800049e8:	05613023          	sd	s6,64(sp)
    800049ec:	03713c23          	sd	s7,56(sp)
    800049f0:	03813823          	sd	s8,48(sp)
    800049f4:	03913423          	sd	s9,40(sp)
    800049f8:	08010413          	addi	s0,sp,128
    delete waitForAll;
    for (int i = 0; i < threadNum; i++) {
        delete producers[i];
    }
    delete consumer;
    delete buffer;
    800049fc:	00010c13          	mv	s8,sp
    printString("Unesite broj proizvodjaca?\n");
    80004a00:	00005517          	auipc	a0,0x5
    80004a04:	6b050513          	addi	a0,a0,1712 # 8000a0b0 <CONSOLE_STATUS+0xa0>
    80004a08:	00001097          	auipc	ra,0x1
    80004a0c:	5a8080e7          	jalr	1448(ra) # 80005fb0 <_Z11printStringPKc>
    getString(input, 30);
    80004a10:	01e00593          	li	a1,30
    80004a14:	f8040493          	addi	s1,s0,-128
    80004a18:	00048513          	mv	a0,s1
    80004a1c:	00001097          	auipc	ra,0x1
    80004a20:	61c080e7          	jalr	1564(ra) # 80006038 <_Z9getStringPci>
    threadNum = stringToInt(input);
    80004a24:	00048513          	mv	a0,s1
    80004a28:	00001097          	auipc	ra,0x1
    80004a2c:	6e8080e7          	jalr	1768(ra) # 80006110 <_Z11stringToIntPKc>
    80004a30:	00050993          	mv	s3,a0
    printString("Unesite velicinu bafera?\n");
    80004a34:	00005517          	auipc	a0,0x5
    80004a38:	69c50513          	addi	a0,a0,1692 # 8000a0d0 <CONSOLE_STATUS+0xc0>
    80004a3c:	00001097          	auipc	ra,0x1
    80004a40:	574080e7          	jalr	1396(ra) # 80005fb0 <_Z11printStringPKc>
    getString(input, 30);
    80004a44:	01e00593          	li	a1,30
    80004a48:	00048513          	mv	a0,s1
    80004a4c:	00001097          	auipc	ra,0x1
    80004a50:	5ec080e7          	jalr	1516(ra) # 80006038 <_Z9getStringPci>
    n = stringToInt(input);
    80004a54:	00048513          	mv	a0,s1
    80004a58:	00001097          	auipc	ra,0x1
    80004a5c:	6b8080e7          	jalr	1720(ra) # 80006110 <_Z11stringToIntPKc>
    80004a60:	00050493          	mv	s1,a0
    printString("Broj proizvodjaca ");
    80004a64:	00005517          	auipc	a0,0x5
    80004a68:	68c50513          	addi	a0,a0,1676 # 8000a0f0 <CONSOLE_STATUS+0xe0>
    80004a6c:	00001097          	auipc	ra,0x1
    80004a70:	544080e7          	jalr	1348(ra) # 80005fb0 <_Z11printStringPKc>
    printInt(threadNum);
    80004a74:	00000613          	li	a2,0
    80004a78:	00a00593          	li	a1,10
    80004a7c:	00098513          	mv	a0,s3
    80004a80:	00001097          	auipc	ra,0x1
    80004a84:	6e0080e7          	jalr	1760(ra) # 80006160 <_Z8printIntiii>
    printString(" i velicina bafera ");
    80004a88:	00005517          	auipc	a0,0x5
    80004a8c:	68050513          	addi	a0,a0,1664 # 8000a108 <CONSOLE_STATUS+0xf8>
    80004a90:	00001097          	auipc	ra,0x1
    80004a94:	520080e7          	jalr	1312(ra) # 80005fb0 <_Z11printStringPKc>
    printInt(n);
    80004a98:	00000613          	li	a2,0
    80004a9c:	00a00593          	li	a1,10
    80004aa0:	00048513          	mv	a0,s1
    80004aa4:	00001097          	auipc	ra,0x1
    80004aa8:	6bc080e7          	jalr	1724(ra) # 80006160 <_Z8printIntiii>
    printString(".\n");
    80004aac:	00005517          	auipc	a0,0x5
    80004ab0:	67450513          	addi	a0,a0,1652 # 8000a120 <CONSOLE_STATUS+0x110>
    80004ab4:	00001097          	auipc	ra,0x1
    80004ab8:	4fc080e7          	jalr	1276(ra) # 80005fb0 <_Z11printStringPKc>
    if (threadNum > n) {
    80004abc:	0334c463          	blt	s1,s3,80004ae4 <_Z20testConsumerProducerv+0x11c>
    } else if (threadNum < 1) {
    80004ac0:	03305c63          	blez	s3,80004af8 <_Z20testConsumerProducerv+0x130>
    BufferCPP *buffer = new BufferCPP(n);
    80004ac4:	03800513          	li	a0,56
    80004ac8:	ffffd097          	auipc	ra,0xffffd
    80004acc:	300080e7          	jalr	768(ra) # 80001dc8 <_Znwm>
    80004ad0:	00050a93          	mv	s5,a0
    80004ad4:	00048593          	mv	a1,s1
    80004ad8:	00001097          	auipc	ra,0x1
    80004adc:	7a8080e7          	jalr	1960(ra) # 80006280 <_ZN9BufferCPPC1Ei>
    80004ae0:	0300006f          	j	80004b10 <_Z20testConsumerProducerv+0x148>
        printString("Broj proizvodjaca ne sme biti manji od velicine bafera!\n");
    80004ae4:	00005517          	auipc	a0,0x5
    80004ae8:	64450513          	addi	a0,a0,1604 # 8000a128 <CONSOLE_STATUS+0x118>
    80004aec:	00001097          	auipc	ra,0x1
    80004af0:	4c4080e7          	jalr	1220(ra) # 80005fb0 <_Z11printStringPKc>
        return;
    80004af4:	0140006f          	j	80004b08 <_Z20testConsumerProducerv+0x140>
        printString("Broj proizvodjaca mora biti veci od nula!\n");
    80004af8:	00005517          	auipc	a0,0x5
    80004afc:	67050513          	addi	a0,a0,1648 # 8000a168 <CONSOLE_STATUS+0x158>
    80004b00:	00001097          	auipc	ra,0x1
    80004b04:	4b0080e7          	jalr	1200(ra) # 80005fb0 <_Z11printStringPKc>
        return;
    80004b08:	000c0113          	mv	sp,s8
    80004b0c:	2140006f          	j	80004d20 <_Z20testConsumerProducerv+0x358>
    waitForAll = new Semaphore(0);
    80004b10:	01000513          	li	a0,16
    80004b14:	ffffd097          	auipc	ra,0xffffd
    80004b18:	2b4080e7          	jalr	692(ra) # 80001dc8 <_Znwm>
    80004b1c:	00050913          	mv	s2,a0
    80004b20:	00000593          	li	a1,0
    80004b24:	ffffd097          	auipc	ra,0xffffd
    80004b28:	584080e7          	jalr	1412(ra) # 800020a8 <_ZN9SemaphoreC1Ej>
    80004b2c:	00008797          	auipc	a5,0x8
